Microchip Technology Inc, v1.41 (B)

Tool Name:
  c:\program files (x86)\microchip\xc16\v1.41\bin\bin\..\bin/elf-ld.exe

Command:
  -p24FJ256GB210 \
  --mdfp=C:/Program Files/Microchip/MPLABX/v5.45/packs/Microchip/PIC24F-DA-GB_DFP/1.3.63/xc16 \
  -o \
  dist/default/production/Split_v.8.53.180.X.production.elf \
  -Lc:/program files (x86)/microchip/xc16/v1.41/bin/bin/.. \
  -LC:/Program Files/Microchip/MPLABX/v5.45/packs/Microchip/PIC24F-DA-GB_DFP/1.3.63/xc16/bin/../support/PIC24F/gld \
  -Lc:/program files (x86)/microchip/xc16/v1.41/bin/bin/../../lib \
  -Lc:/program files (x86)/microchip/xc16/v1.41/bin/bin/../../support/PIC24E/gld \
  -Lc:/program files (x86)/microchip/xc16/v1.41/bin/bin/../../support/PIC24F/gld \
  -Lc:/program files (x86)/microchip/xc16/v1.41/bin/bin/../../support/PIC24H/gld \
  -Lc:/program files (x86)/microchip/xc16/v1.41/bin/bin/../../support/dsPIC30F/gld \
  -Lc:/program files (x86)/microchip/xc16/v1.41/bin/bin/../../support/dsPIC33C/gld \
  -Lc:/program files (x86)/microchip/xc16/v1.41/bin/bin/../../support/dsPIC33E/gld \
  -Lc:/program files (x86)/microchip/xc16/v1.41/bin/bin/../../support/dsPIC33F/gld \
  build/default/production/_ext/1472/DefinePeriferiche.o \
  build/default/production/_ext/1472/Driver_Comunicazione.o \
  build/default/production/_ext/1472/I2C.o \
  build/default/production/_ext/1472/Main.o \
  build/default/production/_ext/1472/ProtocolloComunicazione.o \
  build/default/production/_ext/1472/Timer.o \
  build/default/production/_ext/1472/usart.o \
  build/default/production/_ext/1472/ADC.o \
  build/default/production/_ext/1472/EEPROM.o \
  build/default/production/_ext/1472/Valvola_PassoPasso.o \
  build/default/production/_ext/1472/PWM.o \
  build/default/production/_ext/1472/Driver_ComunicazioneSec.o \
  build/default/production/_ext/1472/ProtocolloComunicazioneSec.o \
  build/default/production/_ext/1472/Core.o \
  build/default/production/_ext/1472/PID.o \
  build/default/production/_ext/1472/LCD_ScreenInfo.o \
  build/default/production/_ext/1472/i2c_LCD_Driver.o \
  build/default/production/_ext/1472/soft_i2c.o \
  build/default/production/_ext/1472/ServiceComunication.o \
  build/default/production/_ext/1472/Driver_ModBusSec.o \
  build/default/production/_ext/1472/ProtocolloModBusSec.o \
  build/default/production/_ext/1472/Interrupt.o \
  build/default/production/_ext/1472/Driver_ModBus.o \
  build/default/production/_ext/1472/ProtocolloModBus.o \
  --local-stack \
  --defsym=__MPLAB_BUILD=1 \
  -Tp24FJ256GB210.gld.00 \
  --stack=16 \
  --check-sections \
  --data-init \
  --pack-data \
  --handles \
  --isr \
  --no-gc-sections \
  --fill-upper=0 \
  --stackguard=16 \
  --library-path=.. \
  --library-path=. \
  --no-force-link \
  --smart-io \
  -Map=dist/default/production/Split_v.8.4.22.X.production.map \
  --report-mem \
  --memorysummary \
  dist/default/production/memoryfile.xml \
  -start-group \
  --library=pic30-elf \
  --library=m-elf \
  --library=c-elf \
  -end-group \


Optional library libpPIC24Fxxx.a not found
Archive member included because of file (symbol)

c:/program files (x86)/microchip/xc16/v1.41/bin/bin/../../lib\libpic30-elf.a(crt0_extended24.o)
                              (__resetPRI)
c:/program files (x86)/microchip/xc16/v1.41/bin/bin/../../lib\libpic30-elf.a(data_init_24.o)
                              c:/program files (x86)/microchip/xc16/v1.41/bin/bin/../../lib\libpic30-elf.a(crt0_extended24.o) (__data_init_da)
c:/program files (x86)/microchip/xc16/v1.41/bin/bin/../../lib\libpic30-elf.a(crt_start_mode_normalda.eo)
                              (__crt_start_mode_normal)
c:/program files (x86)/microchip/xc16/v1.41/bin/bin/../../lib\libpic30-elf.a(delay32da.eo)
                              build/default/production/_ext/1472/I2C.o (___delay32)
c:/program files (x86)/microchip/xc16/v1.41/bin/bin/../../lib\libm-elf.a(addsf3.daeo)
                              build/default/production/_ext/1472/Main.o (___subsf3)
c:/program files (x86)/microchip/xc16/v1.41/bin/bin/../../lib\libm-elf.a(ceilf.daeo)
                              build/default/production/_ext/1472/ProtocolloModBusSec.o (_ceilf)
c:/program files (x86)/microchip/xc16/v1.41/bin/bin/../../lib\libm-elf.a(divsf3.daeo)
                              build/default/production/_ext/1472/Main.o (___divsf3)
c:/program files (x86)/microchip/xc16/v1.41/bin/bin/../../lib\libm-elf.a(divsi3.daeo)
                              build/default/production/_ext/1472/ProtocolloComunicazioneSec.o (___divsi3)
c:/program files (x86)/microchip/xc16/v1.41/bin/bin/../../lib\libm-elf.a(fchop.daeo)
                              c:/program files (x86)/microchip/xc16/v1.41/bin/bin/../../lib\libm-elf.a(ceilf.daeo) (__fchop)
c:/program files (x86)/microchip/xc16/v1.41/bin/bin/../../lib\libm-elf.a(feqltle.daeo)
                              build/default/production/_ext/1472/Core.o (___ltsf2)
c:/program files (x86)/microchip/xc16/v1.41/bin/bin/../../lib\libm-elf.a(fgtge.daeo)
                              build/default/production/_ext/1472/Core.o (___gtsf2)
c:/program files (x86)/microchip/xc16/v1.41/bin/bin/../../lib\libm-elf.a(fixsfsi.daeo)
                              build/default/production/_ext/1472/ProtocolloComunicazione.o (_(float, int, long long, short, float, short, int))
c:/program files (x86)/microchip/xc16/v1.41/bin/bin/../../lib\libm-elf.a(fixunssfsi.daeo)
                              build/default/production/_ext/1472/Main.o (___fixunssfsi)
c:/program files (x86)/microchip/xc16/v1.41/bin/bin/../../lib\libm-elf.a(floatsisf.daeo)
                              build/default/production/_ext/1472/Main.o (___floatsisf)
c:/program files (x86)/microchip/xc16/v1.41/bin/bin/../../lib\libm-elf.a(floatundisf.daeo)
                              build/default/production/_ext/1472/Main.o (___floatundisf)
c:/program files (x86)/microchip/xc16/v1.41/bin/bin/../../lib\libm-elf.a(floatunsisf.daeo)
                              build/default/production/_ext/1472/Main.o (___floatunsisf)
c:/program files (x86)/microchip/xc16/v1.41/bin/bin/../../lib\libm-elf.a(floorf.daeo)
                              build/default/production/_ext/1472/ProtocolloModBusSec.o (_floorf)
c:/program files (x86)/microchip/xc16/v1.41/bin/bin/../../lib\libm-elf.a(fpack.daeo)
                              c:/program files (x86)/microchip/xc16/v1.41/bin/bin/../../lib\libm-elf.a(addsf3.daeo) (__fpack)
c:/program files (x86)/microchip/xc16/v1.41/bin/bin/../../lib\libm-elf.a(funpack.daeo)
                              c:/program files (x86)/microchip/xc16/v1.41/bin/bin/../../lib\libm-elf.a(fchop.daeo) (__funpack)
c:/program files (x86)/microchip/xc16/v1.41/bin/bin/../../lib\libm-elf.a(funpack2.daeo)
                              c:/program files (x86)/microchip/xc16/v1.41/bin/bin/../../lib\libm-elf.a(addsf3.daeo) (__funpack2)
c:/program files (x86)/microchip/xc16/v1.41/bin/bin/../../lib\libm-elf.a(futil.daeo)
                              c:/program files (x86)/microchip/xc16/v1.41/bin/bin/../../lib\libm-elf.a(addsf3.daeo) (__fPropagateNaN)
c:/program files (x86)/microchip/xc16/v1.41/bin/bin/../../lib\libm-elf.a(logf.daeo)
                              build/default/production/_ext/1472/ADC.o (_logf)
c:/program files (x86)/microchip/xc16/v1.41/bin/bin/../../lib\libm-elf.a(mulsf3.daeo)
                              build/default/production/_ext/1472/Main.o (___mulsf3)
c:/program files (x86)/microchip/xc16/v1.41/bin/bin/../../lib\libm-elf.a(udivsi3.daeo)
                              c:/program files (x86)/microchip/xc16/v1.41/bin/bin/../../lib\libm-elf.a(divsi3.daeo) (___udivsi3)
c:/program files (x86)/microchip/xc16/v1.41/bin/bin/../../lib\libm-elf.a(_frexpf.daeo)
                              c:/program files (x86)/microchip/xc16/v1.41/bin/bin/../../lib\libm-elf.a(logf.daeo) (__frexpf)
c:/program files (x86)/microchip/xc16/v1.41/bin/bin/../../lib\libm-elf.a(errno.daeo)
                              c:/program files (x86)/microchip/xc16/v1.41/bin/bin/../../lib\libm-elf.a(logf.daeo) (_errno)
c:/program files (x86)/microchip/xc16/v1.41/bin/bin/../../lib\libm-elf.a(fcompare.daeo)
                              c:/program files (x86)/microchip/xc16/v1.41/bin/bin/../../lib\libm-elf.a(feqltle.daeo) (__fcompare)
c:/program files (x86)/microchip/xc16/v1.41/bin/bin/../../lib\libm-elf.a(floatdisf.daeo)
                              c:/program files (x86)/microchip/xc16/v1.41/bin/bin/../../lib\libm-elf.a(floatsisf.daeo) (___floatdisf)
c:/program files (x86)/microchip/xc16/v1.41/bin/bin/../../lib\libc-elf.a(sprintf_cdnopuxX.DAeo)
                              build/default/production/_ext/1472/Core.o (__sprintf_cdnopuxX)
c:/program files (x86)/microchip/xc16/v1.41/bin/bin/../../lib\libc-elf.a(doprnt_cdnopuxX.DAeo)
                              c:/program files (x86)/microchip/xc16/v1.41/bin/bin/../../lib\libc-elf.a(sprintf_cdnopuxX.DAeo) (__vfprintf_cdnopuxX)
c:/program files (x86)/microchip/xc16/v1.41/bin/bin/../../lib\libc-elf.a(sprintf_cdfFnopuxX.DAeo)
                              build/default/production/_ext/1472/LCD_ScreenInfo.o (__sprintf_cdfFnopuxX)
c:/program files (x86)/microchip/xc16/v1.41/bin/bin/../../lib\libc-elf.a(doprnt_cdfFnopuxX.DAeo)
                              c:/program files (x86)/microchip/xc16/v1.41/bin/bin/../../lib\libc-elf.a(sprintf_cdfFnopuxX.DAeo) (__vfprintf_cdfFnopuxX)
c:/program files (x86)/microchip/xc16/v1.41/bin/bin/../../lib\libc-elf.a(fputc.daeo)
                              c:/program files (x86)/microchip/xc16/v1.41/bin/bin/../../lib\libc-elf.a(doprnt_cdnopuxX.DAeo) (_fputc)
c:/program files (x86)/microchip/xc16/v1.41/bin/bin/../../lib\libc-elf.a(memcpy.daeo)
                              build/default/production/_ext/1472/Core.o (_memcpy)
c:/program files (x86)/microchip/xc16/v1.41/bin/bin/../../lib\libc-elf.a(_iob.daeo)
                              c:/program files (x86)/microchip/xc16/v1.41/bin/bin/../../lib\libc-elf.a(fputc.daeo) (__outdone)
c:/program files (x86)/microchip/xc16/v1.41/bin/bin/../../lib\libc-elf.a(powers.dDAeo)
                              c:/program files (x86)/microchip/xc16/v1.41/bin/bin/../../lib\libc-elf.a(doprnt_cdfFnopuxX.DAeo) (__powers_)
c:/program files (x86)/microchip/xc16/v1.41/bin/bin/../../lib\libc-elf.a(flsbuf.daeo)
                              c:/program files (x86)/microchip/xc16/v1.41/bin/bin/../../lib\libc-elf.a(fputc.daeo) (__flsbuf)
c:/program files (x86)/microchip/xc16/v1.41/bin/bin/../../lib\libpic30-elf.a(writeda.eo)
                              c:/program files (x86)/microchip/xc16/v1.41/bin/bin/../../lib\libc-elf.a(fputc.daeo) (_write)
c:/program files (x86)/microchip/xc16/v1.41/bin/bin/../../lib\libpic30-elf.a(c30_uartda.eo)
                              c:/program files (x86)/microchip/xc16/v1.41/bin/bin/../../lib\libpic30-elf.a(writeda.eo) (___C30_UART)
c:/program files (x86)/microchip/xc16/v1.41/bin/bin/../../lib\libm-elf.a(adddf3.daeo)
                              c:/program files (x86)/microchip/xc16/v1.41/bin/bin/../../lib\libc-elf.a(doprnt_cdfFnopuxX.DAeo) (___adddf3)
c:/program files (x86)/microchip/xc16/v1.41/bin/bin/../../lib\libm-elf.a(deqltle.daeo)
                              c:/program files (x86)/microchip/xc16/v1.41/bin/bin/../../lib\libc-elf.a(doprnt_cdfFnopuxX.DAeo) (___ltdf2)
c:/program files (x86)/microchip/xc16/v1.41/bin/bin/../../lib\libm-elf.a(dgtge.daeo)
                              c:/program files (x86)/microchip/xc16/v1.41/bin/bin/../../lib\libc-elf.a(doprnt_cdfFnopuxX.DAeo) (___gedf2)
c:/program files (x86)/microchip/xc16/v1.41/bin/bin/../../lib\libm-elf.a(divdf3.daeo)
                              c:/program files (x86)/microchip/xc16/v1.41/bin/bin/../../lib\libc-elf.a(doprnt_cdfFnopuxX.DAeo) (___divdf3)
c:/program files (x86)/microchip/xc16/v1.41/bin/bin/../../lib\libm-elf.a(dne.daeo)
                              c:/program files (x86)/microchip/xc16/v1.41/bin/bin/../../lib\libc-elf.a(doprnt_cdfFnopuxX.DAeo) (___nedf2)
c:/program files (x86)/microchip/xc16/v1.41/bin/bin/../../lib\libm-elf.a(dpack.daeo)
                              c:/program files (x86)/microchip/xc16/v1.41/bin/bin/../../lib\libm-elf.a(adddf3.daeo) (__dpack)
c:/program files (x86)/microchip/xc16/v1.41/bin/bin/../../lib\libm-elf.a(dunpack2.daeo)
                              c:/program files (x86)/microchip/xc16/v1.41/bin/bin/../../lib\libm-elf.a(adddf3.daeo) (__dunpack2)
c:/program files (x86)/microchip/xc16/v1.41/bin/bin/../../lib\libm-elf.a(extendsfdf.daeo)
                              c:/program files (x86)/microchip/xc16/v1.41/bin/bin/../../lib\libc-elf.a(doprnt_cdfFnopuxX.DAeo) (___extendsfdf2)
c:/program files (x86)/microchip/xc16/v1.41/bin/bin/../../lib\libm-elf.a(fixunsdfdi.daeo)
                              c:/program files (x86)/microchip/xc16/v1.41/bin/bin/../../lib\libc-elf.a(doprnt_cdfFnopuxX.DAeo) (___fixunsdfdi)
c:/program files (x86)/microchip/xc16/v1.41/bin/bin/../../lib\libm-elf.a(floatunsidf.daeo)
                              c:/program files (x86)/microchip/xc16/v1.41/bin/bin/../../lib\libc-elf.a(doprnt_cdfFnopuxX.DAeo) (___floatunsidf)
c:/program files (x86)/microchip/xc16/v1.41/bin/bin/../../lib\libm-elf.a(frexp.daeo)
                              c:/program files (x86)/microchip/xc16/v1.41/bin/bin/../../lib\libc-elf.a(doprnt_cdfFnopuxX.DAeo) (_frexpl)
c:/program files (x86)/microchip/xc16/v1.41/bin/bin/../../lib\libm-elf.a(muldf3.daeo)
                              c:/program files (x86)/microchip/xc16/v1.41/bin/bin/../../lib\libc-elf.a(doprnt_cdfFnopuxX.DAeo) (___muldf3)
c:/program files (x86)/microchip/xc16/v1.41/bin/bin/../../lib\libm-elf.a(subdf3.daeo)
                              c:/program files (x86)/microchip/xc16/v1.41/bin/bin/../../lib\libc-elf.a(doprnt_cdfFnopuxX.DAeo) (___subdf3)
c:/program files (x86)/microchip/xc16/v1.41/bin/bin/../../lib\libm-elf.a(umodsi3.daeo)
                              c:/program files (x86)/microchip/xc16/v1.41/bin/bin/../../lib\libc-elf.a(doprnt_cdfFnopuxX.DAeo) (___umodsi3)
c:/program files (x86)/microchip/xc16/v1.41/bin/bin/../../lib\libm-elf.a(mulsi3.daeo)
                              c:/program files (x86)/microchip/xc16/v1.41/bin/bin/../../lib\libc-elf.a(doprnt_cdnopuxX.DAeo) (___mulsi3)
c:/program files (x86)/microchip/xc16/v1.41/bin/bin/../../lib\libm-elf.a(dcompare.daeo)
                              c:/program files (x86)/microchip/xc16/v1.41/bin/bin/../../lib\libm-elf.a(deqltle.daeo) (__dcompare)
c:/program files (x86)/microchip/xc16/v1.41/bin/bin/../../lib\libm-elf.a(dpropagateNaN.daeo)
                              c:/program files (x86)/microchip/xc16/v1.41/bin/bin/../../lib\libm-elf.a(dunpack2.daeo) (__dPropagateNaN)
c:/program files (x86)/microchip/xc16/v1.41/bin/bin/../../lib\libm-elf.a(dtype.daeo)
                              c:/program files (x86)/microchip/xc16/v1.41/bin/bin/../../lib\libm-elf.a(dcompare.daeo) (__dtype)
c:/program files (x86)/microchip/xc16/v1.41/bin/bin/../../lib\libm-elf.a(dunpack.daeo)
                              c:/program files (x86)/microchip/xc16/v1.41/bin/bin/../../lib\libm-elf.a(dunpack2.daeo) (__dunpack)
c:/program files (x86)/microchip/xc16/v1.41/bin/bin/../../lib\libm-elf.a(floatundidf.daeo)
                              c:/program files (x86)/microchip/xc16/v1.41/bin/bin/../../lib\libm-elf.a(floatunsidf.daeo) (___floatundidf)


xc16-ld 1.41 (B)

Default Code Model: Small
Default Data Model: Large
Default Scalar Model: Small

"program" Memory  [Origin = 0x200, Length = 0x2a9f8]

section                    address   length (PC units)   length (bytes) (dec)
-------                    -------   -----------------   --------------------
.text                        0x200              0x1d84          0x2c46  (11334)
.const                      0x1f84               0x77c           0xb3a  (2874)
.text                       0x2700             0x15e22         0x20d33  (134451)
.dinit                     0x18522               0x272           0x3ab  (939)
.text                      0x18794               0x6ae           0xa05  (2565)
.init.delay32              0x18e42                0x1c            0x2a  (42)

                 Total "program" memory used (bytes):        0x2528d  (152205) 58%


"data" Memory  [Origin = 0x800, Length = 0x18000]

section                    address      alignment gaps    total length  (dec)
-------                    -------      --------------    -------------------
.nbss                        0x800                   0           0x14c  (332)
.ndata                       0x94c                   0            0x3c  (60)
.nbss                        0x988                   0            0x88  (136)
.ndata                       0xa10                   0             0x4  (4)
.nbss                        0xa14                   0             0x8  (8)
.ndata                       0xa1c                   0             0xa  (10)
.nbss                        0xa26                   0             0x2  (2)
.ndata                       0xa28                   0             0x6  (6)
.nbss                        0xa2e                   0             0x2  (2)
.bss                         0xa30                   0          0x6cfa  (27898)
.data                       0x772a                   0           0x160  (352)
.bss                        0x788a                   0           0x140  (320)
.data                       0x79ca                   0            0xcc  (204)
.bss                        0x7a96                   0            0x20  (32)
.data                       0x7ab6                   0             0xc  (12)
.bss                        0x7ac2                   0             0x6  (6)
.data                       0x7ac8                   0             0x2  (2)

                 Total "data" memory used (bytes):         0x72ca  (29386) 29%


Dynamic Memory Usage

region                     address                      maximum length  (dec)
------                     -------                      ---------------------
heap                             0                                   0  (0)
stack                       0x7aca                               0x536  (1334)

                 Maximum dynamic memory (bytes):          0x536  (1334)


External Symbols in Data Memory (by address):

                    0x0800                  _iPckRx
                    0x0802                  _WaitingReplaySec
                    0x0804                  _iPckRxSec
                    0x0805                  _iPckModRxSec
                    0x0806                  _My_Address
                    0x0807                  _RetryCntSec
                    0x0808                  _DataIndexSec
                    0x080a                  _WriteE2Status
                    0x080c                  _CRC_Flash
                    0x080e                  _SN1
                    0x080f                  _SN2
                    0x0810                  _SN3
                    0x0811                  _SN4
                    0x0812                  _GiornoFabbricazione
                    0x0814                  _MeseFabbricazione
                    0x0816                  _AnnoFabbricazione
                    0x0818                  _PWM_Counter
                    0x081a                  _SogliaCorrenteVentil
                    0x081c                  _TachoTMR
                    0x081e                  _TimerTacho
                    0x0820                  _FlagTachoUpdateRequest
                    0x0822                  _StepRefreshTime
                    0x0824                  _ValvolaMaxStepNum
                    0x0826                  _CyclTestEEV
                    0x0828                  _EnableMySecBus
                    0x082a                  _DividerValvola
                    0x082c                  _FilterSuperHeat
                    0x0834                  _FilterSuperHeatRiscaldamento
                    0x083c                  _FilterBig_Request
                    0x0844                  _FilterExpValve
                    0x084c                  _FilterFan_MaxSpeed
                    0x0854                  _FilterFan_Tacho
                    0x085c                  _FilterEvap_Press
                    0x0864                  _FilterFan_Power
                    0x086c                  _FilterFan_Current
                    0x0874                  _FilterFan_FastCurrent
                    0x087c                  _FilterFan_M3h
                    0x0884                  _FilterAirPowerOutput
                    0x088c                  _FilterAirPowerBTU
                    0x0894                  _iPckModRx
                    0x0896                  _RetryCnt
                    0x0897                  _i
                    0x0898                  _DataIndex
                    0x089a                  _Led_Divider
                    0x089c                  _CntResumeTouch
                    0x089d                  _CntResumeNetB
                    0x089e                  _CntResumeSyxtS
                    0x089f                  _CntResumeSplit_Sec
                    0x08a0                  _ComunicationLost
                    0x08a2                  _CurUsedProtocolId
                    0x08a3                  _ScanTouchCounter
                    0x08a4                  _ScanNetBCounter
                    0x08a5                  _ScanSyxtSCounter
                    0x08a6                  _TimeOutInterCharComErr
                    0x08a8                  _ModCntComErr
                    0x08aa                  _ModTimeOutComErr
                    0x08ac                  _ModTimeOutInterCharComErr
                    0x08ae                  _ModCRC_ComErr
                    0x08b0                  _ModCntComErrSec
                    0x08b2                  _ModTimeOutComErrSec
                    0x08b4                  _ModTimeOutInterCharComErrSec
                    0x08b6                  _ModCRC_ComErrSec
                    0x08b8                  _CntComErrSec
                    0x08ba                  _TimeOutComErrSec
                    0x08bc                  _TimeOutInterCharComErrSec
                    0x08be                  _CRC_ComErrSec
                    0x08c0                  _ReplyResult
                    0x08c2                  _ForceU1MyBUS
                    0x08c4                  _SchedSearchDevice
                    0x08c6                  _nCycle
                    0x08c8                  _SaveNumber
                    0x08da                  _DisableModComErrorCounter
                    0x094c                  _R1
                    0x0950                  _Vref
                    0x0954                  _VoMAX
                    0x0958                  _ADres
                    0x095c                  _Gain1
                    0x0960                  _Gain2
                    0x0964                  _Offset1
                    0x0968                  _Offset2
                    0x096c                  _A1
                    0x0970                  _B1
                    0x0974                  _C1
                    0x0978                  _A2
                    0x097c                  _B2
                    0x0980                  _C2
                    0x0984                  _K
                    0x0988                  _Gain
                    0x098c                  _Offset
                    0x0990                  _Vout
                    0x0994                  _Vptc
                    0x0998                  _Rth
                    0x099c                  _logR
                    0x09a0                  _logR3
                    0x09a4                  _kelvin
                    0x09a8                  _celsius
                    0x09ac                  _dComp
                    0x09b0                  _A
                    0x09b4                  _B
                    0x09b8                  _C
                    0x09f4                  _SecDivider
                    0x09f6                  _mSecDivider
                    0x0a10                  _RTC_Flag
                    0x0a12                  _ScanBoardCounter_Sec
                    0x0a30                  _Adc_Temp
                    0x0a46                  _Sum_Adc_Temp
                    0x0a72                  _N_Campioni
                    0x0a7e                  _TimeOutRx
                    0x0a84                  _BufferRx
                    0x0a90                  _BufferTx
                    0x0a9c                  _LastRx
                    0x0aa8                  _TimeOutRxSec
                    0x0aae                  _BufferRxSec
                    0x0aba                  _BufferTxSec
                    0x0ac6                  _LastRxSec
                    0x0ad2                  _MyBUS_BufferTxSec
                    0x0ae4                  _TimeOutModRxSec
                    0x0aea                  _Mod_BufferRxSec
                    0x0bf0                  _Mod_BufferTxSec
                    0x0cf6                  _Mod_LastRxSec
                    0x0dfc                  _TimeOutPktRxSec
                    0x0e02                  _TimeOutModPktRxSec
                    0x0e08                  _Inverter
                    0x0e32                  _Syncronize
                    0x0eb0                  _PWMValue
                    0x0ec2                  _RefreshVentil
                    0x0ec8                  _RefreshFineVentil
                    0x0ece                  _TimerCheckBatteryDefrost
                    0x0ed4                  _TimerValvola
                    0x0eda                  _TimerDisableValve
                    0x0ee0                  _LCD_ScreeScheduler
                    0x0ee6                  _PausaCompressore
                    0x0eec                  _TimerCompressore
                    0x0ef2                  _TimerDefostCycle
                    0x0ef8                  _TimerRecoveryGasCycle
                    0x0efe                  _TimerRecoveryGasInterval
                    0x0f04                  _TimerRecoveryGasFilter
                    0x0f0a                  _TimerTestEEV
                    0x0f10                  _TimerExecPID
                    0x0f16                  _TimerRestartValve
                    0x0f1c                  _EngineBox
                    0x10da                  _Reinit
                    0x10f6                  _Me
                    0x12be                  _Touch
                    0x1390                  _NetB
                    0x13a2                  _SyxtS
                    0x13b6                  _Room
                    0x1928                  _TimerExpValvola
                    0x192e                  _TimerResyncValvola
                    0x1934                  _TimerExpValv_Err
                    0x193a                  _DiagnosticSplit
                    0x19ce                  _DiagnosticInverter
                    0x19ec                  _TimerSpeedChangeCoreOff
                    0x19f2                  _TimerFanVelSwitch
                    0x19f8                  _TimerCheckFanTacho
                    0x19fe                  _TimerDefrostingCycleWork
                    0x1a08                  _TimerDefrostingCycleStop
                    0x1a0e                  _TimerDefrostingCycleCheck
                    0x1a14                  _TimerOnValveFrozen
                    0x1a1a                  _TimerTemperatureFault
                    0x1a20                  _TimerCorrectSuperHeatAirOut
                    0x1a26                  _TimerMaxTimeCmdAddress
                    0x1a2c                  _TimerFloodFanCoil
                    0x1a32                  _TimerGasLeaks
                    0x1a38                  _TimerTemperatureProbeError
                    0x1a3e                  _TimerErrFlow
                    0x1a44                  _TimerSelectPumpWork
                    0x1a4e                  _TimerOutWaterStop
                    0x1a54                  _TimerHeaterFresh
                    0x1a5a                  _TimerDampersAlarm
                    0x1a60                  _ValvePID
                    0x1aa2                  _ValvePID2
                    0x1ae4                  _TimeOutModRx
                    0x1aea                  _Mod_BufferRx
                    0x1bf0                  _Mod_BufferTx
                    0x1cf6                  _Mod_LastRx
                    0x1dfc                  _TimeOutModPktRx
                    0x1e02                  _BridgeBufferA
                    0x3602                  _BridgeBufferB
                    0x4e02                  _Mod_PreBufferTx
                    0x5602                  _BusError
                    0x561a                  _ServiceBusBufferTxU3
                    0x5a52                  _ServiceBusBufferTxU4
                    0x5e8a                  _ServiceBusBufferRxU3
                    0x62c2                  _ServiceBusBufferRxU4
                    0x66fa                  _TmrLastRequest
                    0x6700                  _TimerStartUp
                    0x6706                  _RefreshNetBRead
                    0x670c                  _TimerSystemCycle
                    0x6712                  _TimerComunicationError
                    0x6718                  _TimerBusMergeMode
                    0x671e                  _TimerToggleComunication_Sec
                    0x6724                  _TimerCheckProbe
                    0x672a                  _VirtualE2PageBuff
                    0x772a                  __powers_
                    0x77da                  __npowers_
                    0x79ca                  _txt1
                    0x79df                  _txt2
                    0x79f4                  _txt3
                    0x7a09                  _txt4
                    0x7a70                  __iob
                    0x7a94                  __Files
                    0x7a96                  _LCDstr
                    0x7ab6                  _Campioni_Acquisizione
                    0x7ac2                  __outdone
                    0x7ac3                  __sibuf
                    0x7ac5                  __sobuf
                    0x7ac8                  ___C30_UART

External Symbols in Data Memory (by name):

                    0x09b0                  _A
                    0x096c                  _A1
                    0x0978                  _A2
                    0x0958                  _ADres
                    0x0a30                  _Adc_Temp
                    0x0816                  _AnnoFabbricazione
                    0x09b4                  _B
                    0x0970                  _B1
                    0x097c                  _B2
                    0x1e02                  _BridgeBufferA
                    0x3602                  _BridgeBufferB
                    0x0a84                  _BufferRx
                    0x0aae                  _BufferRxSec
                    0x0a90                  _BufferTx
                    0x0aba                  _BufferTxSec
                    0x5602                  _BusError
                    0x09b8                  _C
                    0x0974                  _C1
                    0x0980                  _C2
                    0x08be                  _CRC_ComErrSec
                    0x080c                  _CRC_Flash
                    0x7ab6                  _Campioni_Acquisizione
                    0x08b8                  _CntComErrSec
                    0x089d                  _CntResumeNetB
                    0x089f                  _CntResumeSplit_Sec
                    0x089e                  _CntResumeSyxtS
                    0x089c                  _CntResumeTouch
                    0x08a0                  _ComunicationLost
                    0x08a2                  _CurUsedProtocolId
                    0x0826                  _CyclTestEEV
                    0x0898                  _DataIndex
                    0x0808                  _DataIndexSec
                    0x19ce                  _DiagnosticInverter
                    0x193a                  _DiagnosticSplit
                    0x08da                  _DisableModComErrorCounter
                    0x082a                  _DividerValvola
                    0x0828                  _EnableMySecBus
                    0x0f1c                  _EngineBox
                    0x088c                  _FilterAirPowerBTU
                    0x0884                  _FilterAirPowerOutput
                    0x083c                  _FilterBig_Request
                    0x085c                  _FilterEvap_Press
                    0x0844                  _FilterExpValve
                    0x086c                  _FilterFan_Current
                    0x0874                  _FilterFan_FastCurrent
                    0x087c                  _FilterFan_M3h
                    0x084c                  _FilterFan_MaxSpeed
                    0x0864                  _FilterFan_Power
                    0x0854                  _FilterFan_Tacho
                    0x082c                  _FilterSuperHeat
                    0x0834                  _FilterSuperHeatRiscaldamento
                    0x0820                  _FlagTachoUpdateRequest
                    0x08c2                  _ForceU1MyBUS
                    0x0988                  _Gain
                    0x095c                  _Gain1
                    0x0960                  _Gain2
                    0x0812                  _GiornoFabbricazione
                    0x0e08                  _Inverter
                    0x0984                  _K
                    0x0ee0                  _LCD_ScreeScheduler
                    0x7a96                  _LCDstr
                    0x0a9c                  _LastRx
                    0x0ac6                  _LastRxSec
                    0x089a                  _Led_Divider
                    0x10f6                  _Me
                    0x0814                  _MeseFabbricazione
                    0x08ae                  _ModCRC_ComErr
                    0x08b6                  _ModCRC_ComErrSec
                    0x08a8                  _ModCntComErr
                    0x08b0                  _ModCntComErrSec
                    0x08aa                  _ModTimeOutComErr
                    0x08b2                  _ModTimeOutComErrSec
                    0x08ac                  _ModTimeOutInterCharComErr
                    0x08b4                  _ModTimeOutInterCharComErrSec
                    0x1aea                  _Mod_BufferRx
                    0x0aea                  _Mod_BufferRxSec
                    0x1bf0                  _Mod_BufferTx
                    0x0bf0                  _Mod_BufferTxSec
                    0x1cf6                  _Mod_LastRx
                    0x0cf6                  _Mod_LastRxSec
                    0x4e02                  _Mod_PreBufferTx
                    0x0ad2                  _MyBUS_BufferTxSec
                    0x0806                  _My_Address
                    0x0a72                  _N_Campioni
                    0x1390                  _NetB
                    0x098c                  _Offset
                    0x0964                  _Offset1
                    0x0968                  _Offset2
                    0x0eb0                  _PWMValue
                    0x0818                  _PWM_Counter
                    0x0ee6                  _PausaCompressore
                    0x094c                  _R1
                    0x0a10                  _RTC_Flag
                    0x0ec8                  _RefreshFineVentil
                    0x6706                  _RefreshNetBRead
                    0x0ec2                  _RefreshVentil
                    0x10da                  _Reinit
                    0x08c0                  _ReplyResult
                    0x0896                  _RetryCnt
                    0x0807                  _RetryCntSec
                    0x13b6                  _Room
                    0x0998                  _Rth
                    0x080e                  _SN1
                    0x080f                  _SN2
                    0x0810                  _SN3
                    0x0811                  _SN4
                    0x08c8                  _SaveNumber
                    0x0a12                  _ScanBoardCounter_Sec
                    0x08a4                  _ScanNetBCounter
                    0x08a5                  _ScanSyxtSCounter
                    0x08a3                  _ScanTouchCounter
                    0x08c4                  _SchedSearchDevice
                    0x09f4                  _SecDivider
                    0x5e8a                  _ServiceBusBufferRxU3
                    0x62c2                  _ServiceBusBufferRxU4
                    0x561a                  _ServiceBusBufferTxU3
                    0x5a52                  _ServiceBusBufferTxU4
                    0x081a                  _SogliaCorrenteVentil
                    0x0822                  _StepRefreshTime
                    0x0a46                  _Sum_Adc_Temp
                    0x0e32                  _Syncronize
                    0x13a2                  _SyxtS
                    0x081c                  _TachoTMR
                    0x08ba                  _TimeOutComErrSec
                    0x08a6                  _TimeOutInterCharComErr
                    0x08bc                  _TimeOutInterCharComErrSec
                    0x1dfc                  _TimeOutModPktRx
                    0x0e02                  _TimeOutModPktRxSec
                    0x1ae4                  _TimeOutModRx
                    0x0ae4                  _TimeOutModRxSec
                    0x0dfc                  _TimeOutPktRxSec
                    0x0a7e                  _TimeOutRx
                    0x0aa8                  _TimeOutRxSec
                    0x6718                  _TimerBusMergeMode
                    0x0ece                  _TimerCheckBatteryDefrost
                    0x19f8                  _TimerCheckFanTacho
                    0x6724                  _TimerCheckProbe
                    0x0eec                  _TimerCompressore
                    0x6712                  _TimerComunicationError
                    0x1a20                  _TimerCorrectSuperHeatAirOut
                    0x1a5a                  _TimerDampersAlarm
                    0x0ef2                  _TimerDefostCycle
                    0x1a0e                  _TimerDefrostingCycleCheck
                    0x1a08                  _TimerDefrostingCycleStop
                    0x19fe                  _TimerDefrostingCycleWork
                    0x0eda                  _TimerDisableValve
                    0x1a3e                  _TimerErrFlow
                    0x0f10                  _TimerExecPID
                    0x1934                  _TimerExpValv_Err
                    0x1928                  _TimerExpValvola
                    0x19f2                  _TimerFanVelSwitch
                    0x1a2c                  _TimerFloodFanCoil
                    0x1a32                  _TimerGasLeaks
                    0x1a54                  _TimerHeaterFresh
                    0x1a26                  _TimerMaxTimeCmdAddress
                    0x1a14                  _TimerOnValveFrozen
                    0x1a4e                  _TimerOutWaterStop
                    0x0ef8                  _TimerRecoveryGasCycle
                    0x0f04                  _TimerRecoveryGasFilter
                    0x0efe                  _TimerRecoveryGasInterval
                    0x0f16                  _TimerRestartValve
                    0x192e                  _TimerResyncValvola
                    0x1a44                  _TimerSelectPumpWork
                    0x19ec                  _TimerSpeedChangeCoreOff
                    0x6700                  _TimerStartUp
                    0x670c                  _TimerSystemCycle
                    0x081e                  _TimerTacho
                    0x1a1a                  _TimerTemperatureFault
                    0x1a38                  _TimerTemperatureProbeError
                    0x0f0a                  _TimerTestEEV
                    0x671e                  _TimerToggleComunication_Sec
                    0x0ed4                  _TimerValvola
                    0x66fa                  _TmrLastRequest
                    0x12be                  _Touch
                    0x1a60                  _ValvePID
                    0x1aa2                  _ValvePID2
                    0x0824                  _ValvolaMaxStepNum
                    0x672a                  _VirtualE2PageBuff
                    0x0954                  _VoMAX
                    0x0990                  _Vout
                    0x0994                  _Vptc
                    0x0950                  _Vref
                    0x0802                  _WaitingReplaySec
                    0x080a                  _WriteE2Status
                    0x7a94                  __Files
                    0x7ac8                  ___C30_UART
                    0x7a70                  __iob
                    0x77da                  __npowers_
                    0x7ac2                  __outdone
                    0x772a                  __powers_
                    0x7ac3                  __sibuf
                    0x7ac5                  __sobuf
                    0x09a8                  _celsius
                    0x09ac                  _dComp
                    0x0897                  _i
                    0x0894                  _iPckModRx
                    0x0805                  _iPckModRxSec
                    0x0800                  _iPckRx
                    0x0804                  _iPckRxSec
                    0x09a4                  _kelvin
                    0x099c                  _logR
                    0x09a0                  _logR3
                    0x09f6                  _mSecDivider
                    0x08c6                  _nCycle
                    0x79ca                  _txt1
                    0x79df                  _txt2
                    0x79f4                  _txt3
                    0x7a09                  _txt4

External Symbols in Program Memory (by address):

                  0x000200                  __resetPRI
                  0x00023c                  __psv_init
                  0x000252                  __data_init
                  0x000252                  __data_init_da
                  0x000308                  __ADC1Interrupt
                  0x00032a                  __U2TXInterrupt
                  0x0003bc                  __U1RXInterrupt
                  0x000424                  __U2RXInterrupt
                  0x000476                  __U1ErrInterrupt
                  0x00049c                  __U2ErrInterrupt
                  0x0004c2                  __U3RXInterrupt
                  0x00050c                  __U3TXInterrupt
                  0x0005d8                  __U3ErrInterrupt
                  0x0005fe                  __T1Interrupt
                  0x0007f6                  __DefaultInterrupt
                  0x000880                  ___subsf3
                  0x000882                  ___addsf3
                  0x00093c                  _ceilf
                  0x00094c                  ___divsf3
                  0x0009d0                  ___divsi3
                  0x0009ee                  __fchop
                  0x000a3c                  ___lesf2
                  0x000a3c                  ___ltsf2
                  0x000a3c                  ___eqsf2
                  0x000a40                  ___gtsf2
                  0x000a40                  ___gesf2
                  0x000a44                  ___fixsfsi
                  0x000a86                  ___fixunssfsi
                  0x000abc                  ___floatsisf
                  0x000ac2                  ___floatundisf
                  0x000b20                  ___floatunsisf
                  0x000b24                  _floorf
                  0x000b34                  __fpack
                  0x000b80                  __funpack
                  0x000baa                  __funpack2
                  0x000bba                  __fPropagateNaN
                  0x000bcc                  __fbopExit
                  0x000bd4                  __fbopReturnNaN
                  0x000bda                  _logf
                  0x000c88                  ___mulsf3
                  0x000cf0                  ___udivsi3
                  0x000d10                  __frexpf
                  0x000d2a                  __fcompare
                  0x000d60                  ___floatdisf
                  0x000d80                  __sprintf_cdfFnopuxX
                  0x000d80                  __sprintf_cdnopuxX
                  0x000f3c                  __vfprintf_cdnopuxX
                  0x000f3c                  __vfprintf_cdfFnopuxX
                  0x001984                  _memcpy
                  0x001a14                  ___adddf3
                  0x001b10                  ___ltdf2
                  0x001b10                  ___eqdf2
                  0x001b10                  ___ledf2
                  0x001b1a                  ___gtdf2
                  0x001b1a                  ___gedf2
                  0x001b24                  ___divdf3
                  0x001bd8                  ___nedf2
                  0x001be2                  __dpack
                  0x001c3a                  __dunpack2
                  0x001c5c                  __dreturnNaN
                  0x001c62                  __dunpack2exit
                  0x001c6c                  ___extendsfdf2
                  0x001caa                  ___fixunsdfdi
                  0x001d0c                  ___floatunsidf
                  0x001d10                  _frexpl
                  0x001d10                  _frexp
                  0x001d4c                  ___muldf3
                  0x001e38                  ___subdf3
                  0x001e3c                  ___umodsi3
                  0x001e42                  ___mulp32eds3
                  0x001e42                  ___mulsi3
                  0x001e42                  ___mulp32peds3
                  0x001e4e                  __dcompare
                  0x001ea0                  __dPropagateNaN
                  0x001ebc                  __dtype
                  0x001ee0                  __dunpack
                  0x001f2e                  ___floatundidf
                  0x002700                  _WaitModRxSec
                  0x002788                  _Send_WaitModRxSec
                  0x0027fa                  _Send_WriteModRegSec
                  0x00289c                  _ReadModRegSec
                  0x002914                  _ReadModListRegSec
                  0x00298e                  _WriteModRegSec
                  0x0029f2                  _WriteModListRegSec
                  0x002a56                  _ReadModRegSecInv
                  0x002ac2                  _WriteModRegSecInv
                  0x002af4                  _ReadModRegSecZiehgAbbModbusFan
                  0x002b38                  _WriteModRegSecZiehgAbbModbusFan
                  0x002b6a                  _ReadModInputSecZiehgAbbModbusFan
                  0x002bae                  _ReadModRegSecEBMModbusFan
                  0x002bf2                  _WriteModRegSecEBMModbusFan
                  0x002c24                  _ReadModInputSecEBMModbusFan
                  0x002c68                  _ReadModRegSecNetB
                  0x002cdc                  _ReadModListRegSecNetB
                  0x002d54                  _WriteModRegSecNetB
                  0x002db2                  _WriteCoilModRegSecNetB
                  0x002e10                  _ReadCoilModRegSecNetB
                  0x002e84                  _WriteModListRegSecNetB
                  0x002ee2                  _ExtracRegSec
                  0x002f16                  _InsertRegSec
                  0x002f42                  _InitInverterFan
                  0x002f84                  _RefreshInverterFan
                  0x0030ba                  _RefreshZiehgAbbModbusFan
                  0x003128                  _RefreshEBMModbusFan
                  0x0031de                  _Search_Touch
                  0x003308                  _CheckHotPlugTouch
                  0x0034aa                  _Resume_TouchOffLine
                  0x003694                  _RefreshTouchInPut
                  0x003fd8                  _RefreshAllTouchInPut
                  0x00404a                  _RefreshTouchOutPut
                  0x00529e                  _RefreshAllTouchOutPut
                  0x0052d6                  _InitTouch
                  0x00596a                  _CheckIfTouchIsReady
                  0x0059dc                  _Search_NetB
                  0x005ae4                  _Resume_NetBOffLine
                  0x005cd6                  _CheckHotPlugNetB
                  0x005e6e                  _RefreshNetBInPut
                  0x005f36                  _RefreshAllNetBInPut
                  0x005f5c                  _RefreshNetBOutPut
                  0x005f64                  _RefreshAllNetBOutPut
                  0x006000                  _InitNetB
                  0x00605a                  _Reinit_DataSplitToTouch
                  0x0061b4                  _Reinit_DataSplitToNetB
                  0x0062da                  _SyncronizeDataOld
                  0x006366                  _SyncronizeDataNew
                  0x006564                  _SyncronizeDataBridge
                  0x0065ea                  _SyncronizeDataNew_NetB
                  0x00676c                  _SyncronizeDataSetP_NetB
                  0x0069da                  _SyncronizeDataOnOff_NetB
                  0x006c66                  _SyncronizeDataVel_NetB
                  0x006ed0                  _ApplyVel_NetB
                  0x006efc                  _Reinit_DataSplitToSyxtS
                  0x007060                  _ReadModRegSecSyxtS
                  0x0070d4                  _ReadModInputSecSyxtS
                  0x007148                  _ReadModListRegSecSyxtS
                  0x0071c0                  _WriteModRegSecSyxtS
                  0x00721e                  _WriteCoilModRegSecSyxtS
                  0x00727c                  _WriteModListRegSecSyxtS
                  0x0072da                  _ReadCoilModRegSecSyxtS
                  0x00734e                  _ReadInputStModRegSecSyxtS
                  0x0073c2                  _RefreshAllSyxtSInPut
                  0x0073e8                  _RefreshSyxtSInPut
                  0x00757a                  _SyxtS2Touch
                  0x0075b4                  _Search_SyxtS
                  0x00775e                  _InitSyxtS
                  0x00793a                  _RefreshAllSyxtSOutPut
                  0x0079f6                  _Resume_SyxtSOffLine
                  0x007bee                  _CheckHotPlugSyxtS
                  0x007d8a                  _SyncronizeDataSetP_SyxtS
                  0x007fe2                  _SyncronizeDataOnOff_SyxtS
                  0x008224                  _SyncronizeDataVel_SyxtS
                  0x008440                  _SyncronizeDataHeater_SyxtS
                  0x008684                  _round
                  0x0086d2                  _SearchModbusDeviceIndex
                  0x0087ca                  _RecheckDataReadTouch
                  0x0087da                  _NetB2Touch
                  0x008842                  _FunctionMode
                  0x009272                  _PressureGas
                  0x009346                  _PressureGasToTempR410A
                  0x009830                  _TempToPressureGasR410A
                  0x009ca0                  _DinamicSuperHeatCold
                  0x009d5e                  _TempEvaporazione
                  0x009e76                  _PutStringToBUS2
                  0x00a04e                  _RegolaValvola
                  0x00b13e                  _RealFunctionMode
                  0x00b1d8                  _TempAmbMidSel
                  0x00b412                  _DefrostingCycle
                  0x00b57e                  _FloodFanCoilAlarmCycle
                  0x00b5f2                  _GasLeaksAlarmCycle
                  0x00b666                  _ValueIn2ValueOut
                  0x00b768                  _ValueToPercent
                  0x00b7a2                  _CheckErrorTemperatureProbe
                  0x00b970                  _CheckProbeFreeze
                  0x00b9de                  _Thermal_Power_Output_Calculation
                  0x00bdbc                  _SetMyAddress
                  0x00bdc8                  _GetMyAddress
                  0x00bdd0                  _ResetComFlags
                  0x00bde6                  _Process_Cmd
                  0x00bf46                  _GetData
                  0x00cf60                  _PutData
                  0x00e5ac                  _Change_ProtocolBusSlave
                  0x00e750                  _StoreIntVirt
                  0x00e782                  _LoadIntVirt
                  0x00e7aa                  _Store_Offset_SectorPage
                  0x00e80e                  _HiByte
                  0x00e81c                  _LoByte
                  0x00e828                  _HiMidByte
                  0x00e836                  _LoMidByte
                  0x00e864                  _ToInt
                  0x00e87e                  _StoreInt
                  0x00e8ce                  _LoadInt
                  0x00e91a                  _ToLong
                  0x00e9ba                  _StoreLong
                  0x00ea54                  _LoadLong
                  0x00eadc                  _RefreshE2_TouchValue_DoubleSector
                  0x00eaf0                  _LoadE2_TouchValue_DoubleSector
                  0x00eafc                  _RefreshE2_TouchValue
                  0x00f334                  _LoadE2_TouchValue
                  0x00f8dc                  _Generate_CRC_E2
                  0x00f92e                  _CheckValueRange
                  0x00fd06                  _CheckVarValue
                  0x00fd42                  _CheckVarValueNew
                  0x00fda2                  _CheckVarValueNewNetB
                  0x00fe02                  _CheckVarValueSetPNetB
                  0x00fe6e                  _CheckVarValueNewSyxtS
                  0x00fece                  _CheckVarValueSetPSyxtS
                  0x00ff3a                  _CheckVarValueOnOffSyxtS
                  0x00ffa6                  _CheckDefModeValue
                  0x00ffdc                  _CheckUtaModeValue
                  0x010008                  _CheckPowerLimitValue
                  0x010036                  _CheckPumpSelectionValue
                  0x010052                  _CheckEEPROM_ReadWrite
                  0x010146                  _CheckEEPROM_Retention
                  0x010230                  _InitEEPROM_Retention
                  0x01026a                  _EraseEEPROM
                  0x01028a                  _LoadAllEEPROM_Debug
                  0x0102b8                  _CheckEEPROMCell
                  0x010382                  _CheckEEPROMCellSector
                  0x010500                  _LoadE2VirtualPageBuffer
                  0x01052c                  _WaitRxSec
                  0x0105a4                  _Send_WriteReg_Sec
                  0x0106b2                  _SendBrc_WriteReg_Sec
                  0x01071a                  _FuncReadReg_Sec
                  0x01075a                  _FuncWriteReg_Sec
                  0x010792                  _FuncWriteBrcReg_Sec
                  0x0107ae                  _FuncCheckReg_Sec
                  0x0107da                  _CheckModuli_Sec
                  0x0108f0                  _CheckHotPlugSlave_Sec
                  0x010a56                  _ResumeOffLine_Sec
                  0x010bf0                  _RefreshInPutRoom_Sec
                  0x01120a                  _RefreshAllInPut_Sec
                  0x0114a8                  _RefreshOutPutRoom_Sec
                  0x011998                  _RefreshAllOutPut_Sec
                  0x0119be                  _MountImageSlaveFlags
                  0x011dfa                  _ErrorReport
                  0x011e80                  _AD2Kpid
                  0x011eb6                  _main
                  0x012270                  _Init
                  0x0128f4                  _Hw_Test
                  0x012ce0                  _Hw_Test_PLX_DAQ
                  0x012fc6                  _SendDataToTouch
                  0x0131ea                  _CheckIO
                  0x013260                  _ValveOpenCloseCheck
                  0x0132fa                  _CheckFanSpeed
                  0x0133ac                  _InitADConversion
                  0x0133f6                  _BootLoaderAutoReset
                  0x0134c4                  _GlobalIntReadBus
                  0x0134f0                  _OkDataProcess
                  0x01353c                  _Change_BaudeUART3
                  0x013590                  _PutStringToUART3
                  0x01378e                  _SendBufferToUART3
                  0x0137cc                  _PutDataForUART3
                  0x0139a6                  _PutDataForUART3_NEW
                  0x013ac2                  _PutDataForUART3_CheckBoard
                  0x0142be                  _PutDataForUART3_GetFileNumber
                  0x0142e2                  _PutDataForUART3_CheckBox
                  0x014322                  _IntReadServiceBusU3
                  0x014394                  _Process_ServiceU3Cmd
                  0x0143d0                  _StringToInt
                  0x014482                  _Init_PWM_Value
                  0x014552                  _PWM2Freq
                  0x0145d8                  _DeltaTempInOut
                  0x014664                  _DeltaTempReqOut
                  0x0146f6                  _Init_PWM_Module
                  0x014734                  _VariazionePWM
                  0x014866                  _FanSpeedLimit
                  0x01491c                  _UpdateFanSpeed
                  0x014bfe                  _FineRegVentil
                  0x014d04                  _ControlloVentil
                  0x014d9e                  _Tacho_Init
                  0x014dc2                  _TachoInterrupt
                  0x014dde                  _RefreshTacho
                  0x014e20                  _Incrementa
                  0x014e8a                  _Decrementa
                  0x014ef4                  _TempAmbFanSel
                  0x014f00                  _DeltaSP2Vel
                  0x0150d2                  _DeltaSP2VelDiffPress
                  0x015124                  _FanPowerCalculation
                  0x015272                  _FanM3hCalculation
                  0x0152dc                  _AD_Read_Sched
                  0x015804                  _AD_Read
                  0x0159a0                  _AD_ReadSingle
                  0x0159e0                  _Temp_Read
                  0x015b74                  _T_Amb_Read
                  0x015d0e                  _Pressure_Read_45
                  0x015d38                  _Pressure_Read_34
                  0x015d62                  _Steinhart
                  0x015f1a                  _PowerSupplyConversion
                  0x015f40                  _Pot_Read
                  0x015f92                  _DifferentialPressureConversion
                  0x015fb8                  _HumidityConversion
                  0x015ff4                  _Mod_BaseCRC16Sec
                  0x016044                  _Mod_Generate_CRCSec
                  0x016082                  _Mod_CopyBufferSec
                  0x0160c0                  _Mod_WriteBusSec
                  0x016102                  _Mod_WriteBusU3
                  0x016144                  _Mod_IntReadBusSec
                  0x016334                  _Mod_IntTimeOutRxSec
                  0x016392                  _Mod_Recive_CmdSec
                  0x01643c                  _Mod_Write_CmdSec
                  0x016612                  _ResetStepDriver
                  0x01662c                  _Refresh_MotSt
                  0x016690                  _Free_Run
                  0x016698                  _Reduce_DriverCurrent
                  0x0166a0                  _Enable_Run
                  0x0166ac                  _Disable_Run
                  0x0166b4                  _ResetValvola
                  0x0166c6                  _OpenAllValvola
                  0x0166d4                  _ReSyncValvola
                  0x0166e6                  _DischOffsValvola
                  0x01671c                  _InitValveRangeValue
                  0x016766                  _CalculateValveRangeValue
                  0x016a7a                  _InitValvola
                  0x016ab6                  _RefreshValue
                  0x016b76                  _Mod_BaseCRC16
                  0x016bce                  _Mod_Generate_CRC
                  0x016bfe                  _Mod_CopyBuffer
                  0x016c30                  _Mod_WriteBus
                  0x016c6c                  _Mod_IntReadBus
                  0x016d7a                  _Mod_IntTimeOutRx
                  0x016dc0                  _Mod_Recive_Cmd
                  0x016e52                  _Mod_Reply_Cmd
                  0x016f4e                  _BaseCRC16
                  0x016fa0                  _GenerateCRC
                  0x01701a                  _CopyBuffer
                  0x01705c                  _WriteBus
                  0x0170de                  _IntReadBus
                  0x0171ea                  _IntTimeOutRx
                  0x017218                  _Recive_Cmd
                  0x01726a                  _Write_Cmd
                  0x0172c2                  _Write_brc_Cmd
                  0x017318                  _WriteBusSec
                  0x017360                  _WriteBusU3
                  0x0173a8                  _IntReadBusSec
                  0x017542                  _IntTimeOutRxSec
                  0x017576                  _Recive_Cmd_Sec
                  0x0175d8                  _Write_Cmd_Sec
                  0x01769c                  _PIDOut2Valve
                  0x0176ec                  _Valve2PIDOut
                  0x01773c                  _PID_SetOut
                  0x017764                  _PID_init
                  0x0177d6                  _UpdatePID
                  0x017978                  _Filter
                  0x017a1a                  _WaitModRx
                  0x017aac                  _ExtracReg
                  0x017adc                  _InsertReg
                  0x017b08                  _Mod_Process_Cmd
                  0x017c04                  _Mod_GetDataMulti
                  0x017d06                  _Remap_RP
                  0x017fd8                  _I2C_Init
                  0x017ff2                  _I2C_Is_Idle
                  0x01802e                  _I2C_Start
                  0x01806e                  _I2C_Repeated_Start
                  0x0180a4                  _I2C_Stop
                  0x0180d8                  _Reset_I2C_bus
                  0x018114                  _I2C_Write
                  0x018186                  _I2C_Read
                  0x0181c6                  _SetRegI2C
                  0x018254                  _ReadRegI2C
                  0x01829a                  _I2C_LCD_Cmd
                  0x018312                  _I2C_LCD_Chr
                  0x0183c2                  _I2C_LCD_Chr_Cp
                  0x01842c                  _I2C_LCD_Init
                  0x0184d8                  _I2C_LCD_Out
                  0x018508                  _I2C_LCD_Out_Cp
                  0x018794                  _LCD_Info_Init
                  0x0187be                  _Print_LCD_Info
                  0x01899c                  _putch1
                  0x0189ce                  _getch1
                  0x0189e6                  _putch2
                  0x018a18                  _getch2
                  0x018a30                  _putch3
                  0x018a62                  _getch3
                  0x018a7a                  _putch
                  0x018aa6                  _getch
                  0x018abe                  _getche
                  0x018ad6                  _ClearUart1Err
                  0x018ae8                  _ClearUart2Err
                  0x018afa                  _ClearUart3Err
                  0x018b0c                  _ErrorLedBlink
                  0x018c4e                  _i2cInit
                  0x018c64                  _i2cReadByte
                  0x018ca0                  _i2cWriteByte
                  0x018cd0                  _i2cNack
                  0x018cda                  _i2cAck
                  0x018cec                  _i2cStart
                  0x018cfa                  _i2cStop
                  0x018d08                  _i2cHighSda
                  0x018d1a                  _i2cLowSda
                  0x018d2c                  _i2cHighScl
                  0x018d3e                  _i2cLowScl
                  0x018d50                  _Config_TMR1
                  0x018da8                  _Start_TMR1
                  0x018db0                  _Stop_TMR1
                  0x018dba                  _Pasue_TMR1
                  0x018dc2                  _ChkTimer
                  0x018df8                  _ChkTimerLong
                  0x018e34                  _Init_Timer
                  0x018e42                  ___delay32

External Symbols in Program Memory (by name):

                  0x011e80                  _AD2Kpid
                  0x015804                  _AD_Read
                  0x0159a0                  _AD_ReadSingle
                  0x0152dc                  _AD_Read_Sched
                  0x006ed0                  _ApplyVel_NetB
                  0x016f4e                  _BaseCRC16
                  0x0133f6                  _BootLoaderAutoReset
                  0x016766                  _CalculateValveRangeValue
                  0x01353c                  _Change_BaudeUART3
                  0x00e5ac                  _Change_ProtocolBusSlave
                  0x00ffa6                  _CheckDefModeValue
                  0x0102b8                  _CheckEEPROMCell
                  0x010382                  _CheckEEPROMCellSector
                  0x010052                  _CheckEEPROM_ReadWrite
                  0x010146                  _CheckEEPROM_Retention
                  0x00b7a2                  _CheckErrorTemperatureProbe
                  0x0132fa                  _CheckFanSpeed
                  0x005cd6                  _CheckHotPlugNetB
                  0x0108f0                  _CheckHotPlugSlave_Sec
                  0x007bee                  _CheckHotPlugSyxtS
                  0x003308                  _CheckHotPlugTouch
                  0x0131ea                  _CheckIO
                  0x00596a                  _CheckIfTouchIsReady
                  0x0107da                  _CheckModuli_Sec
                  0x010008                  _CheckPowerLimitValue
                  0x00b970                  _CheckProbeFreeze
                  0x010036                  _CheckPumpSelectionValue
                  0x00ffdc                  _CheckUtaModeValue
                  0x00f92e                  _CheckValueRange
                  0x00fd06                  _CheckVarValue
                  0x00fd42                  _CheckVarValueNew
                  0x00fda2                  _CheckVarValueNewNetB
                  0x00fe6e                  _CheckVarValueNewSyxtS
                  0x00ff3a                  _CheckVarValueOnOffSyxtS
                  0x00fe02                  _CheckVarValueSetPNetB
                  0x00fece                  _CheckVarValueSetPSyxtS
                  0x018dc2                  _ChkTimer
                  0x018df8                  _ChkTimerLong
                  0x018ad6                  _ClearUart1Err
                  0x018ae8                  _ClearUart2Err
                  0x018afa                  _ClearUart3Err
                  0x018d50                  _Config_TMR1
                  0x014d04                  _ControlloVentil
                  0x01701a                  _CopyBuffer
                  0x014e8a                  _Decrementa
                  0x00b412                  _DefrostingCycle
                  0x014f00                  _DeltaSP2Vel
                  0x0150d2                  _DeltaSP2VelDiffPress
                  0x0145d8                  _DeltaTempInOut
                  0x014664                  _DeltaTempReqOut
                  0x015f92                  _DifferentialPressureConversion
                  0x009ca0                  _DinamicSuperHeatCold
                  0x0166ac                  _Disable_Run
                  0x0166e6                  _DischOffsValvola
                  0x0166a0                  _Enable_Run
                  0x01026a                  _EraseEEPROM
                  0x018b0c                  _ErrorLedBlink
                  0x011dfa                  _ErrorReport
                  0x017aac                  _ExtracReg
                  0x002ee2                  _ExtracRegSec
                  0x015272                  _FanM3hCalculation
                  0x015124                  _FanPowerCalculation
                  0x014866                  _FanSpeedLimit
                  0x017978                  _Filter
                  0x014bfe                  _FineRegVentil
                  0x00b57e                  _FloodFanCoilAlarmCycle
                  0x016690                  _Free_Run
                  0x0107ae                  _FuncCheckReg_Sec
                  0x01071a                  _FuncReadReg_Sec
                  0x010792                  _FuncWriteBrcReg_Sec
                  0x01075a                  _FuncWriteReg_Sec
                  0x008842                  _FunctionMode
                  0x00b5f2                  _GasLeaksAlarmCycle
                  0x016fa0                  _GenerateCRC
                  0x00f8dc                  _Generate_CRC_E2
                  0x00bf46                  _GetData
                  0x00bdc8                  _GetMyAddress
                  0x0134c4                  _GlobalIntReadBus
                  0x00e80e                  _HiByte
                  0x00e828                  _HiMidByte
                  0x015fb8                  _HumidityConversion
                  0x0128f4                  _Hw_Test
                  0x012ce0                  _Hw_Test_PLX_DAQ
                  0x017fd8                  _I2C_Init
                  0x017ff2                  _I2C_Is_Idle
                  0x018312                  _I2C_LCD_Chr
                  0x0183c2                  _I2C_LCD_Chr_Cp
                  0x01829a                  _I2C_LCD_Cmd
                  0x01842c                  _I2C_LCD_Init
                  0x0184d8                  _I2C_LCD_Out
                  0x018508                  _I2C_LCD_Out_Cp
                  0x018186                  _I2C_Read
                  0x01806e                  _I2C_Repeated_Start
                  0x01802e                  _I2C_Start
                  0x0180a4                  _I2C_Stop
                  0x018114                  _I2C_Write
                  0x014e20                  _Incrementa
                  0x012270                  _Init
                  0x0133ac                  _InitADConversion
                  0x010230                  _InitEEPROM_Retention
                  0x002f42                  _InitInverterFan
                  0x006000                  _InitNetB
                  0x00775e                  _InitSyxtS
                  0x0052d6                  _InitTouch
                  0x01671c                  _InitValveRangeValue
                  0x016a7a                  _InitValvola
                  0x0146f6                  _Init_PWM_Module
                  0x014482                  _Init_PWM_Value
                  0x018e34                  _Init_Timer
                  0x017adc                  _InsertReg
                  0x002f16                  _InsertRegSec
                  0x0170de                  _IntReadBus
                  0x0173a8                  _IntReadBusSec
                  0x014322                  _IntReadServiceBusU3
                  0x0171ea                  _IntTimeOutRx
                  0x017542                  _IntTimeOutRxSec
                  0x018794                  _LCD_Info_Init
                  0x00e81c                  _LoByte
                  0x00e836                  _LoMidByte
                  0x01028a                  _LoadAllEEPROM_Debug
                  0x010500                  _LoadE2VirtualPageBuffer
                  0x00f334                  _LoadE2_TouchValue
                  0x00eaf0                  _LoadE2_TouchValue_DoubleSector
                  0x00e8ce                  _LoadInt
                  0x00e782                  _LoadIntVirt
                  0x00ea54                  _LoadLong
                  0x016b76                  _Mod_BaseCRC16
                  0x015ff4                  _Mod_BaseCRC16Sec
                  0x016bfe                  _Mod_CopyBuffer
                  0x016082                  _Mod_CopyBufferSec
                  0x016bce                  _Mod_Generate_CRC
                  0x016044                  _Mod_Generate_CRCSec
                  0x017c04                  _Mod_GetDataMulti
                  0x016c6c                  _Mod_IntReadBus
                  0x016144                  _Mod_IntReadBusSec
                  0x016d7a                  _Mod_IntTimeOutRx
                  0x016334                  _Mod_IntTimeOutRxSec
                  0x017b08                  _Mod_Process_Cmd
                  0x016dc0                  _Mod_Recive_Cmd
                  0x016392                  _Mod_Recive_CmdSec
                  0x016e52                  _Mod_Reply_Cmd
                  0x016c30                  _Mod_WriteBus
                  0x0160c0                  _Mod_WriteBusSec
                  0x016102                  _Mod_WriteBusU3
                  0x01643c                  _Mod_Write_CmdSec
                  0x0119be                  _MountImageSlaveFlags
                  0x0087da                  _NetB2Touch
                  0x0134f0                  _OkDataProcess
                  0x0166c6                  _OpenAllValvola
                  0x01769c                  _PIDOut2Valve
                  0x01773c                  _PID_SetOut
                  0x017764                  _PID_init
                  0x014552                  _PWM2Freq
                  0x018dba                  _Pasue_TMR1
                  0x015f40                  _Pot_Read
                  0x015f1a                  _PowerSupplyConversion
                  0x009272                  _PressureGas
                  0x009346                  _PressureGasToTempR410A
                  0x015d38                  _Pressure_Read_34
                  0x015d0e                  _Pressure_Read_45
                  0x0187be                  _Print_LCD_Info
                  0x00bde6                  _Process_Cmd
                  0x014394                  _Process_ServiceU3Cmd
                  0x00cf60                  _PutData
                  0x0137cc                  _PutDataForUART3
                  0x013ac2                  _PutDataForUART3_CheckBoard
                  0x0142e2                  _PutDataForUART3_CheckBox
                  0x0142be                  _PutDataForUART3_GetFileNumber
                  0x0139a6                  _PutDataForUART3_NEW
                  0x009e76                  _PutStringToBUS2
                  0x013590                  _PutStringToUART3
                  0x0166d4                  _ReSyncValvola
                  0x002e10                  _ReadCoilModRegSecNetB
                  0x0072da                  _ReadCoilModRegSecSyxtS
                  0x00734e                  _ReadInputStModRegSecSyxtS
                  0x002c24                  _ReadModInputSecEBMModbusFan
                  0x0070d4                  _ReadModInputSecSyxtS
                  0x002b6a                  _ReadModInputSecZiehgAbbModbusFan
                  0x002914                  _ReadModListRegSec
                  0x002cdc                  _ReadModListRegSecNetB
                  0x007148                  _ReadModListRegSecSyxtS
                  0x00289c                  _ReadModRegSec
                  0x002bae                  _ReadModRegSecEBMModbusFan
                  0x002a56                  _ReadModRegSecInv
                  0x002c68                  _ReadModRegSecNetB
                  0x007060                  _ReadModRegSecSyxtS
                  0x002af4                  _ReadModRegSecZiehgAbbModbusFan
                  0x018254                  _ReadRegI2C
                  0x00b13e                  _RealFunctionMode
                  0x0087ca                  _RecheckDataReadTouch
                  0x017218                  _Recive_Cmd
                  0x017576                  _Recive_Cmd_Sec
                  0x016698                  _Reduce_DriverCurrent
                  0x01120a                  _RefreshAllInPut_Sec
                  0x005f36                  _RefreshAllNetBInPut
                  0x005f64                  _RefreshAllNetBOutPut
                  0x011998                  _RefreshAllOutPut_Sec
                  0x0073c2                  _RefreshAllSyxtSInPut
                  0x00793a                  _RefreshAllSyxtSOutPut
                  0x003fd8                  _RefreshAllTouchInPut
                  0x00529e                  _RefreshAllTouchOutPut
                  0x00eafc                  _RefreshE2_TouchValue
                  0x00eadc                  _RefreshE2_TouchValue_DoubleSector
                  0x003128                  _RefreshEBMModbusFan
                  0x010bf0                  _RefreshInPutRoom_Sec
                  0x002f84                  _RefreshInverterFan
                  0x005e6e                  _RefreshNetBInPut
                  0x005f5c                  _RefreshNetBOutPut
                  0x0114a8                  _RefreshOutPutRoom_Sec
                  0x0073e8                  _RefreshSyxtSInPut
                  0x014dde                  _RefreshTacho
                  0x003694                  _RefreshTouchInPut
                  0x00404a                  _RefreshTouchOutPut
                  0x016ab6                  _RefreshValue
                  0x0030ba                  _RefreshZiehgAbbModbusFan
                  0x01662c                  _Refresh_MotSt
                  0x00a04e                  _RegolaValvola
                  0x0061b4                  _Reinit_DataSplitToNetB
                  0x006efc                  _Reinit_DataSplitToSyxtS
                  0x00605a                  _Reinit_DataSplitToTouch
                  0x017d06                  _Remap_RP
                  0x00bdd0                  _ResetComFlags
                  0x016612                  _ResetStepDriver
                  0x0166b4                  _ResetValvola
                  0x0180d8                  _Reset_I2C_bus
                  0x010a56                  _ResumeOffLine_Sec
                  0x005ae4                  _Resume_NetBOffLine
                  0x0079f6                  _Resume_SyxtSOffLine
                  0x0034aa                  _Resume_TouchOffLine
                  0x0086d2                  _SearchModbusDeviceIndex
                  0x0059dc                  _Search_NetB
                  0x0075b4                  _Search_SyxtS
                  0x0031de                  _Search_Touch
                  0x0106b2                  _SendBrc_WriteReg_Sec
                  0x01378e                  _SendBufferToUART3
                  0x012fc6                  _SendDataToTouch
                  0x002788                  _Send_WaitModRxSec
                  0x0027fa                  _Send_WriteModRegSec
                  0x0105a4                  _Send_WriteReg_Sec
                  0x00bdbc                  _SetMyAddress
                  0x0181c6                  _SetRegI2C
                  0x018da8                  _Start_TMR1
                  0x015d62                  _Steinhart
                  0x018db0                  _Stop_TMR1
                  0x00e87e                  _StoreInt
                  0x00e750                  _StoreIntVirt
                  0x00e9ba                  _StoreLong
                  0x00e7aa                  _Store_Offset_SectorPage
                  0x0143d0                  _StringToInt
                  0x006564                  _SyncronizeDataBridge
                  0x008440                  _SyncronizeDataHeater_SyxtS
                  0x006366                  _SyncronizeDataNew
                  0x0065ea                  _SyncronizeDataNew_NetB
                  0x0062da                  _SyncronizeDataOld
                  0x0069da                  _SyncronizeDataOnOff_NetB
                  0x007fe2                  _SyncronizeDataOnOff_SyxtS
                  0x00676c                  _SyncronizeDataSetP_NetB
                  0x007d8a                  _SyncronizeDataSetP_SyxtS
                  0x006c66                  _SyncronizeDataVel_NetB
                  0x008224                  _SyncronizeDataVel_SyxtS
                  0x00757a                  _SyxtS2Touch
                  0x015b74                  _T_Amb_Read
                  0x014dc2                  _TachoInterrupt
                  0x014d9e                  _Tacho_Init
                  0x014ef4                  _TempAmbFanSel
                  0x00b1d8                  _TempAmbMidSel
                  0x009d5e                  _TempEvaporazione
                  0x009830                  _TempToPressureGasR410A
                  0x0159e0                  _Temp_Read
                  0x00b9de                  _Thermal_Power_Output_Calculation
                  0x00e864                  _ToInt
                  0x00e91a                  _ToLong
                  0x01491c                  _UpdateFanSpeed
                  0x0177d6                  _UpdatePID
                  0x00b666                  _ValueIn2ValueOut
                  0x00b768                  _ValueToPercent
                  0x0176ec                  _Valve2PIDOut
                  0x013260                  _ValveOpenCloseCheck
                  0x014734                  _VariazionePWM
                  0x017a1a                  _WaitModRx
                  0x002700                  _WaitModRxSec
                  0x01052c                  _WaitRxSec
                  0x01705c                  _WriteBus
                  0x017318                  _WriteBusSec
                  0x017360                  _WriteBusU3
                  0x002db2                  _WriteCoilModRegSecNetB
                  0x00721e                  _WriteCoilModRegSecSyxtS
                  0x0029f2                  _WriteModListRegSec
                  0x002e84                  _WriteModListRegSecNetB
                  0x00727c                  _WriteModListRegSecSyxtS
                  0x00298e                  _WriteModRegSec
                  0x002bf2                  _WriteModRegSecEBMModbusFan
                  0x002ac2                  _WriteModRegSecInv
                  0x002d54                  _WriteModRegSecNetB
                  0x0071c0                  _WriteModRegSecSyxtS
                  0x002b38                  _WriteModRegSecZiehgAbbModbusFan
                  0x01726a                  _Write_Cmd
                  0x0175d8                  _Write_Cmd_Sec
                  0x0172c2                  _Write_brc_Cmd
                  0x000308                  __ADC1Interrupt
                  0x0007f6                  __DefaultInterrupt
                  0x0005fe                  __T1Interrupt
                  0x000476                  __U1ErrInterrupt
                  0x0003bc                  __U1RXInterrupt
                  0x00049c                  __U2ErrInterrupt
                  0x000424                  __U2RXInterrupt
                  0x00032a                  __U2TXInterrupt
                  0x0005d8                  __U3ErrInterrupt
                  0x0004c2                  __U3RXInterrupt
                  0x00050c                  __U3TXInterrupt
                  0x001a14                  ___adddf3
                  0x000882                  ___addsf3
                  0x018e42                  ___delay32
                  0x001b24                  ___divdf3
                  0x00094c                  ___divsf3
                  0x0009d0                  ___divsi3
                  0x001b10                  ___eqdf2
                  0x000a3c                  ___eqsf2
                  0x001c6c                  ___extendsfdf2
                  0x000a44                  ___fixsfsi
                  0x001caa                  ___fixunsdfdi
                  0x000a86                  ___fixunssfsi
                  0x000d60                  ___floatdisf
                  0x000abc                  ___floatsisf
                  0x001f2e                  ___floatundidf
                  0x000ac2                  ___floatundisf
                  0x001d0c                  ___floatunsidf
                  0x000b20                  ___floatunsisf
                  0x001b1a                  ___gedf2
                  0x000a40                  ___gesf2
                  0x001b1a                  ___gtdf2
                  0x000a40                  ___gtsf2
                  0x001b10                  ___ledf2
                  0x000a3c                  ___lesf2
                  0x001b10                  ___ltdf2
                  0x000a3c                  ___ltsf2
                  0x001d4c                  ___muldf3
                  0x001e42                  ___mulp32eds3
                  0x001e42                  ___mulp32peds3
                  0x000c88                  ___mulsf3
                  0x001e42                  ___mulsi3
                  0x001bd8                  ___nedf2
                  0x001e38                  ___subdf3
                  0x000880                  ___subsf3
                  0x000cf0                  ___udivsi3
                  0x001e3c                  ___umodsi3
                  0x001ea0                  __dPropagateNaN
                  0x000252                  __data_init
                  0x000252                  __data_init_da
                  0x001e4e                  __dcompare
                  0x001be2                  __dpack
                  0x001c5c                  __dreturnNaN
                  0x001ebc                  __dtype
                  0x001ee0                  __dunpack
                  0x001c3a                  __dunpack2
                  0x001c62                  __dunpack2exit
                  0x000bba                  __fPropagateNaN
                  0x000bcc                  __fbopExit
                  0x000bd4                  __fbopReturnNaN
                  0x0009ee                  __fchop
                  0x000d2a                  __fcompare
                  0x000b34                  __fpack
                  0x000d10                  __frexpf
                  0x000b80                  __funpack
                  0x000baa                  __funpack2
                  0x00023c                  __psv_init
                  0x000200                  __resetPRI
                  0x000d80                  __sprintf_cdfFnopuxX
                  0x000d80                  __sprintf_cdnopuxX
                  0x000f3c                  __vfprintf_cdfFnopuxX
                  0x000f3c                  __vfprintf_cdnopuxX
                  0x00093c                  _ceilf
                  0x000b24                  _floorf
                  0x001d10                  _frexp
                  0x001d10                  _frexpl
                  0x018aa6                  _getch
                  0x0189ce                  _getch1
                  0x018a18                  _getch2
                  0x018a62                  _getch3
                  0x018abe                  _getche
                  0x018cda                  _i2cAck
                  0x018d2c                  _i2cHighScl
                  0x018d08                  _i2cHighSda
                  0x018c4e                  _i2cInit
                  0x018d3e                  _i2cLowScl
                  0x018d1a                  _i2cLowSda
                  0x018cd0                  _i2cNack
                  0x018c64                  _i2cReadByte
                  0x018cec                  _i2cStart
                  0x018cfa                  _i2cStop
                  0x018ca0                  _i2cWriteByte
                  0x000bda                  _logf
                  0x011eb6                  _main
                  0x001984                  _memcpy
                  0x018a7a                  _putch
                  0x01899c                  _putch1
                  0x0189e6                  _putch2
                  0x018a30                  _putch3
                  0x008684                  _round

Memory Configuration

Name             Origin             Length             Attributes
data             0x000800           0x018000           a !xr
reset            0x000000           0x000004  
ivt              0x000004           0x0000fc  
_reserved        0x000100           0x000004  
aivt             0x000104           0x0000fc  
program          0x000200           0x02a9f8           xr
CONFIG4          0x02abf8           0x000002  
CONFIG3          0x02abfa           0x000002  
CONFIG2          0x02abfc           0x000002  
CONFIG1          0x02abfe           0x000002  
*default*        0x000000           0xffffffff  

Linker script and memory map

LOAD build/default/production/_ext/1472/DefinePeriferiche.o
LOAD build/default/production/_ext/1472/Driver_Comunicazione.o
LOAD build/default/production/_ext/1472/I2C.o
LOAD build/default/production/_ext/1472/Main.o
LOAD build/default/production/_ext/1472/ProtocolloComunicazione.o
LOAD build/default/production/_ext/1472/Timer.o
LOAD build/default/production/_ext/1472/usart.o
LOAD build/default/production/_ext/1472/ADC.o
LOAD build/default/production/_ext/1472/EEPROM.o
LOAD build/default/production/_ext/1472/Valvola_PassoPasso.o
LOAD build/default/production/_ext/1472/PWM.o
LOAD build/default/production/_ext/1472/Driver_ComunicazioneSec.o
LOAD build/default/production/_ext/1472/ProtocolloComunicazioneSec.o
LOAD build/default/production/_ext/1472/Core.o
LOAD build/default/production/_ext/1472/PID.o
LOAD build/default/production/_ext/1472/LCD_ScreenInfo.o
LOAD build/default/production/_ext/1472/i2c_LCD_Driver.o
LOAD build/default/production/_ext/1472/soft_i2c.o
LOAD build/default/production/_ext/1472/ServiceComunication.o
LOAD build/default/production/_ext/1472/Driver_ModBusSec.o
LOAD build/default/production/_ext/1472/ProtocolloModBusSec.o
LOAD build/default/production/_ext/1472/Interrupt.o
LOAD build/default/production/_ext/1472/Driver_ModBus.o
LOAD build/default/production/_ext/1472/ProtocolloModBus.o
                    0x0001                  __MPLAB_BUILD = 0x1
LOAD pPIC24Fxxx
LOAD c:/program files (x86)/microchip/xc16/v1.41/bin/bin/../../lib\libfx-elf.a
                    0x2abf8                  __CONFIG4 = 0x2abf8
                    0x2abfa                  __CONFIG3 = 0x2abfa
                    0x2abfc                  __CONFIG2 = 0x2abfc
                    0x2abfe                  __CONFIG1 = 0x2abfe
                    0x0200                  __CODE_BASE = 0x200
                    0x2a9f8                  __CODE_LENGTH = 0x2a9f8
                    0x0004                  __IVT_BASE = 0x4
                    0x0104                  __AIVT_BASE = 0x104
                    0x0800                  __DATA_BASE = 0x800
                    0x18000                  __DATA_LENGTH = 0x18000

.reset            0x000000          0x4
                  0x000000          0x2 SHORT 0x200 ABSOLUTE (__reset)
                  0x000001          0x2 SHORT 0x4
                  0x000002          0x2 SHORT 0x0 ((ABSOLUTE (__reset) >> 0x10) & 0x7f)
                  0x000003          0x2 SHORT 0x0

.text             0x000200       0x1d84
 *(.init)
 .init            0x000200         0x4c c:/program files (x86)/microchip/xc16/v1.41/bin/bin/../../lib\libpic30-elf.a(crt0_extended24.o)
                  0x000200                  __resetPRI
                  0x000200                  __reset
                  0x00023c                  __psv_init
 .init            0x00024c         0xb8 c:/program files (x86)/microchip/xc16/v1.41/bin/bin/../../lib\libpic30-elf.a(data_init_24.o)
                  0x000252                  __data_init
                  0x000252                  __data_init_da
 *(.user_init)
 *(.handle)
 .handle          0x000304          0x4 jump_table
 *(.isr*)
 .isr.text        0x000308        0x4ee build/default/production/_ext/1472/Interrupt.o
                  0x000308                  __ADC1Interrupt
                  0x00032a                  __U2TXInterrupt
                  0x0003bc                  __U1RXInterrupt
                  0x000424                  __U2RXInterrupt
                  0x000476                  __U1ErrInterrupt
                  0x00049c                  __U2ErrInterrupt
                  0x0004c2                  __U3RXInterrupt
                  0x00050c                  __U3TXInterrupt
                  0x0005d8                  __U3ErrInterrupt
                  0x0005fe                  __T1Interrupt
 .isr             0x0007f6          0x4 default_isr
                  0x0007f6                  __DefaultInterrupt
 *(.libc)
 .libc            0x0007fa         0x84 c:/program files (x86)/microchip/xc16/v1.41/bin/bin/../../lib\libpic30-elf.a(writeda.eo)
                  0x0007fa                  _write
 *(.libm)
 *(.libdsp)
 *(.lib*)
 .libpic30_crt_start_mode
                  0x00087e          0x2 c:/program files (x86)/microchip/xc16/v1.41/bin/bin/../../lib\libpic30-elf.a(crt_start_mode_normalda.eo)
                  0x00087e                  __crt_start_mode
                  0x00087e                  __crt_start_mode_normal
 .libm.subsf3     0x000880         0xbc c:/program files (x86)/microchip/xc16/v1.41/bin/bin/../../lib\libm-elf.a(addsf3.daeo)
                  0x000880                  ___subsf3
                  0x000882                  ___addsf3
 .libm.ceilf      0x00093c         0x10 c:/program files (x86)/microchip/xc16/v1.41/bin/bin/../../lib\libm-elf.a(ceilf.daeo)
                  0x00093c                  _ceilf
 .libm.divfs3     0x00094c         0x84 c:/program files (x86)/microchip/xc16/v1.41/bin/bin/../../lib\libm-elf.a(divsf3.daeo)
                  0x00094c                  ___divsf3
 .libm.divsi3     0x0009d0         0x1e c:/program files (x86)/microchip/xc16/v1.41/bin/bin/../../lib\libm-elf.a(divsi3.daeo)
                  0x0009d0                  ___divsi3
 .libm.fchop      0x0009ee         0x4e c:/program files (x86)/microchip/xc16/v1.41/bin/bin/../../lib\libm-elf.a(fchop.daeo)
                  0x0009ee                  __fchop
 .libm.eqsf2      0x000a3c          0x4 c:/program files (x86)/microchip/xc16/v1.41/bin/bin/../../lib\libm-elf.a(feqltle.daeo)
                  0x000a3c                  ___eqsf2
                  0x000a3c                  ___ltsf2
                  0x000a3c                  ___lesf2
 .libm.gtsf2      0x000a40          0x4 c:/program files (x86)/microchip/xc16/v1.41/bin/bin/../../lib\libm-elf.a(fgtge.daeo)
                  0x000a40                  ___gesf2
                  0x000a40                  ___gtsf2
 .libm.fixsfsi    0x000a44         0x42 c:/program files (x86)/microchip/xc16/v1.41/bin/bin/../../lib\libm-elf.a(fixsfsi.daeo)
                  0x000a44                  _(float, int, long long, short, float, short, int)
 .libm.fixunssfsi
                  0x000a86         0x36 c:/program files (x86)/microchip/xc16/v1.41/bin/bin/../../lib\libm-elf.a(fixunssfsi.daeo)
                  0x000a86                  ___fixunssfsi
 .libm.floatsisf
                  0x000abc          0x6 c:/program files (x86)/microchip/xc16/v1.41/bin/bin/../../lib\libm-elf.a(floatsisf.daeo)
                  0x000abc                  ___floatsisf
 .libm.floatundisf
                  0x000ac2         0x5e c:/program files (x86)/microchip/xc16/v1.41/bin/bin/../../lib\libm-elf.a(floatundisf.daeo)
                  0x000ac2                  ___floatundisf
 .libm.floatunsisf
                  0x000b20          0x4 c:/program files (x86)/microchip/xc16/v1.41/bin/bin/../../lib\libm-elf.a(floatunsisf.daeo)
                  0x000b20                  ___floatunsisf
 .libm.floorf     0x000b24         0x10 c:/program files (x86)/microchip/xc16/v1.41/bin/bin/../../lib\libm-elf.a(floorf.daeo)
                  0x000b24                  _floorf
 .libm.fpack      0x000b34         0x4c c:/program files (x86)/microchip/xc16/v1.41/bin/bin/../../lib\libm-elf.a(fpack.daeo)
                  0x000b34                  __fpack
 .libm.funpack    0x000b80         0x2a c:/program files (x86)/microchip/xc16/v1.41/bin/bin/../../lib\libm-elf.a(funpack.daeo)
                  0x000b80                  __funpack
 .libm.funpack2
                  0x000baa         0x10 c:/program files (x86)/microchip/xc16/v1.41/bin/bin/../../lib\libm-elf.a(funpack2.daeo)
                  0x000baa                  __funpack2
 .libm.fPropagateNaN
                  0x000bba         0x12 c:/program files (x86)/microchip/xc16/v1.41/bin/bin/../../lib\libm-elf.a(futil.daeo)
                  0x000bba                  __fPropagateNaN
 .libm.fbobExit
                  0x000bcc          0x8 c:/program files (x86)/microchip/xc16/v1.41/bin/bin/../../lib\libm-elf.a(futil.daeo)
                  0x000bcc                  __fbopExit
 .libm.fbopReturnNaN
                  0x000bd4          0x6 c:/program files (x86)/microchip/xc16/v1.41/bin/bin/../../lib\libm-elf.a(futil.daeo)
                  0x000bd4                  __fbopReturnNaN
 .libm.logf       0x000bda         0xae c:/program files (x86)/microchip/xc16/v1.41/bin/bin/../../lib\libm-elf.a(logf.daeo)
                  0x000bda                  _logf
 .libm.mulsf3     0x000c88         0x68 c:/program files (x86)/microchip/xc16/v1.41/bin/bin/../../lib\libm-elf.a(mulsf3.daeo)
                  0x000c88                  ___mulsf3
 .libm.udivsi3    0x000cf0         0x20 c:/program files (x86)/microchip/xc16/v1.41/bin/bin/../../lib\libm-elf.a(udivsi3.daeo)
                  0x000cf0                  ___udivsi3
 .libm.frexpf     0x000d10         0x1a c:/program files (x86)/microchip/xc16/v1.41/bin/bin/../../lib\libm-elf.a(_frexpf.daeo)
                  0x000d10                  __frexpf
 .libm.fcompare
                  0x000d2a         0x36 c:/program files (x86)/microchip/xc16/v1.41/bin/bin/../../lib\libm-elf.a(fcompare.daeo)
                  0x000d2a                  __fcompare
 .libm.floatdisf
                  0x000d60         0x20 c:/program files (x86)/microchip/xc16/v1.41/bin/bin/../../lib\libm-elf.a(floatdisf.daeo)
                  0x000d60                  ___floatdisf
 .libc._sprintf_cdfFnopuxX
                  0x000d80         0x2c c:/program files (x86)/microchip/xc16/v1.41/bin/bin/../../lib\libc-elf.a(sprintf_cdfFnopuxX.DAeo)
                  0x000d80                  __sprintf_cdnopuxX
                  0x000d80                  __sprintf_cdfFnopuxX
 .libc.fround     0x000dac         0xba c:/program files (x86)/microchip/xc16/v1.41/bin/bin/../../lib\libc-elf.a(doprnt_cdfFnopuxX.DAeo)
 .libc.scale      0x000e66         0xc4 c:/program files (x86)/microchip/xc16/v1.41/bin/bin/../../lib\libc-elf.a(doprnt_cdfFnopuxX.DAeo)
 .libc.sputc      0x000f2a         0x12 c:/program files (x86)/microchip/xc16/v1.41/bin/bin/../../lib\libc-elf.a(doprnt_cdfFnopuxX.DAeo)
 .libc._vfprintf_cdfFnopuxX
                  0x000f3c        0x9c2 c:/program files (x86)/microchip/xc16/v1.41/bin/bin/../../lib\libc-elf.a(doprnt_cdfFnopuxX.DAeo)
                  0x000f3c                  __vfprintf_cdfFnopuxX
                  0x000f3c                  __vfprintf_cdnopuxX
 .libc.fputc      0x0018fe         0x86 c:/program files (x86)/microchip/xc16/v1.41/bin/bin/../../lib\libc-elf.a(fputc.daeo)
                  0x0018fe                  _fputc
 .libc.memcpy     0x001984          0xe c:/program files (x86)/microchip/xc16/v1.41/bin/bin/../../lib\libc-elf.a(memcpy.daeo)
                  0x001984                  _memcpy
 .libc._flsbuf    0x001992         0x7e c:/program files (x86)/microchip/xc16/v1.41/bin/bin/../../lib\libc-elf.a(flsbuf.daeo)
                  0x001992                  __flsbuf
 .libc.dowrite    0x001a10          0x4 c:/program files (x86)/microchip/xc16/v1.41/bin/bin/../../lib\libpic30-elf.a(writeda.eo)
 .libm.adddf3     0x001a14         0xfc c:/program files (x86)/microchip/xc16/v1.41/bin/bin/../../lib\libm-elf.a(adddf3.daeo)
                  0x001a14                  ___adddf3
 .libm.eqdf2      0x001b10          0xa c:/program files (x86)/microchip/xc16/v1.41/bin/bin/../../lib\libm-elf.a(deqltle.daeo)
                  0x001b10                  ___eqdf2
                  0x001b10                  ___ltdf2
                  0x001b10                  ___ledf2
 .libm.gtdf2      0x001b1a          0xa c:/program files (x86)/microchip/xc16/v1.41/bin/bin/../../lib\libm-elf.a(dgtge.daeo)
                  0x001b1a                  ___gtdf2
                  0x001b1a                  ___gedf2
 .libm.divdf3     0x001b24         0xb4 c:/program files (x86)/microchip/xc16/v1.41/bin/bin/../../lib\libm-elf.a(divdf3.daeo)
                  0x001b24                  ___divdf3
 .libm.nedf2      0x001bd8          0xa c:/program files (x86)/microchip/xc16/v1.41/bin/bin/../../lib\libm-elf.a(dne.daeo)
                  0x001bd8                  ___nedf2
 .libm.dpack      0x001be2         0x58 c:/program files (x86)/microchip/xc16/v1.41/bin/bin/../../lib\libm-elf.a(dpack.daeo)
                  0x001be2                  __dpack
 .libm.dunpack2
                  0x001c3a         0x32 c:/program files (x86)/microchip/xc16/v1.41/bin/bin/../../lib\libm-elf.a(dunpack2.daeo)
                  0x001c3a                  __dunpack2
                  0x001c5c                  __dreturnNaN
                  0x001c62                  __dunpack2exit
 .libm.extendsfdf2
                  0x001c6c         0x3e c:/program files (x86)/microchip/xc16/v1.41/bin/bin/../../lib\libm-elf.a(extendsfdf.daeo)
                  0x001c6c                  ___extendsfdf2
 .libm.fixunsdfdi
                  0x001caa         0x62 c:/program files (x86)/microchip/xc16/v1.41/bin/bin/../../lib\libm-elf.a(fixunsdfdi.daeo)
                  0x001caa                  ___fixunsdfdi
 .libm.floatunsidf
                  0x001d0c          0x4 c:/program files (x86)/microchip/xc16/v1.41/bin/bin/../../lib\libm-elf.a(floatunsidf.daeo)
                  0x001d0c                  ___floatunsidf
 .libm.frexp      0x001d10         0x3a c:/program files (x86)/microchip/xc16/v1.41/bin/bin/../../lib\libm-elf.a(frexp.daeo)
                  0x001d10                  _frexp
                  0x001d10                  _frexpl
 *fill*           0x001d4a          0x400
 .libm.muldf3     0x001d4c         0xec c:/program files (x86)/microchip/xc16/v1.41/bin/bin/../../lib\libm-elf.a(muldf3.daeo)
                  0x001d4c                  ___muldf3
 .libm.subdf3     0x001e38          0x4 c:/program files (x86)/microchip/xc16/v1.41/bin/bin/../../lib\libm-elf.a(subdf3.daeo)
                  0x001e38                  ___subdf3
 .libm.umodsi3    0x001e3c          0x6 c:/program files (x86)/microchip/xc16/v1.41/bin/bin/../../lib\libm-elf.a(umodsi3.daeo)
                  0x001e3c                  ___umodsi3
 .libm.mulsi3     0x001e42          0xc c:/program files (x86)/microchip/xc16/v1.41/bin/bin/../../lib\libm-elf.a(mulsi3.daeo)
                  0x001e42                  ___mulp32peds3
                  0x001e42                  ___mulsi3
                  0x001e42                  ___mulp32eds3
 .libm.dcompare
                  0x001e4e         0x52 c:/program files (x86)/microchip/xc16/v1.41/bin/bin/../../lib\libm-elf.a(dcompare.daeo)
                  0x001e4e                  __dcompare
 .libm.dPropagateNaN
                  0x001ea0         0x1c c:/program files (x86)/microchip/xc16/v1.41/bin/bin/../../lib\libm-elf.a(dpropagateNaN.daeo)
                  0x001ea0                  __dPropagateNaN
 .libm.dtype      0x001ebc         0x24 c:/program files (x86)/microchip/xc16/v1.41/bin/bin/../../lib\libm-elf.a(dtype.daeo)
                  0x001ebc                  __dtype
 .libm.dunpack    0x001ee0         0x4e c:/program files (x86)/microchip/xc16/v1.41/bin/bin/../../lib\libm-elf.a(dunpack.daeo)
                  0x001ee0                  __dunpack
 .libm.floatundidf
                  0x001f2e         0x56 c:/program files (x86)/microchip/xc16/v1.41/bin/bin/../../lib\libm-elf.a(floatundidf.daeo)
                  0x001f2e                  ___floatundidf

usercode
 *(usercode)

__CONFIG4
 *(__CONFIG4.sec*)

__CONFIG3
 *(__CONFIG3.sec*)

__CONFIG2
 *(__CONFIG2.sec*)

__CONFIG1
 *(__CONFIG1.sec*)

.comment
 *(.comment)

.debug_info       0x000000      0x4e8a7
 *(.debug_info)
 .debug_info      0x000000       0x3ba9 build/default/production/_ext/1472/DefinePeriferiche.o
 .debug_info      0x003ba9        0x745 build/default/production/_ext/1472/Driver_Comunicazione.o
 .debug_info      0x0042ee        0x93b build/default/production/_ext/1472/I2C.o
 .debug_info      0x004c29       0x9fec build/default/production/_ext/1472/Main.o
 .debug_info      0x00ec15       0x5872 build/default/production/_ext/1472/ProtocolloComunicazione.o
 .debug_info      0x014487        0x925 build/default/production/_ext/1472/Timer.o
 .debug_info      0x014dac       0x10e1 build/default/production/_ext/1472/usart.o
 .debug_info      0x015e8d       0x1095 build/default/production/_ext/1472/ADC.o
 .debug_info      0x016f22       0x5c4d build/default/production/_ext/1472/EEPROM.o
 .debug_info      0x01cb6f       0x481e build/default/production/_ext/1472/Valvola_PassoPasso.o
 .debug_info      0x02138d       0x5501 build/default/production/_ext/1472/PWM.o
 .debug_info      0x02688e       0x2cad build/default/production/_ext/1472/Driver_ComunicazioneSec.o
 .debug_info      0x02953b       0x502b build/default/production/_ext/1472/ProtocolloComunicazioneSec.o
 .debug_info      0x02e566       0x5a53 build/default/production/_ext/1472/Core.o
 .debug_info      0x033fb9       0x211c build/default/production/_ext/1472/PID.o
 .debug_info      0x0360d5       0x2a0c build/default/production/_ext/1472/LCD_ScreenInfo.o
 .debug_info      0x038ae1        0x342 build/default/production/_ext/1472/i2c_LCD_Driver.o
 .debug_info      0x038e23        0x75f build/default/production/_ext/1472/soft_i2c.o
 .debug_info      0x039582       0x4d22 build/default/production/_ext/1472/ServiceComunication.o
 .debug_info      0x03e2a4       0x2d49 build/default/production/_ext/1472/Driver_ModBusSec.o
 .debug_info      0x040fed       0x7754 build/default/production/_ext/1472/ProtocolloModBusSec.o
 .debug_info      0x048741       0x53dd build/default/production/_ext/1472/Interrupt.o
 .debug_info      0x04db1e        0x807 build/default/production/_ext/1472/Driver_ModBus.o
 .debug_info      0x04e325        0x582 build/default/production/_ext/1472/ProtocolloModBus.o
 *(.gnu.linkonce.wi.*)

.debug_abbrev     0x000000       0x29bc
 *(.debug_abbrev)
 .debug_abbrev    0x000000         0xc5 build/default/production/_ext/1472/DefinePeriferiche.o
 .debug_abbrev    0x0000c5        0x1bd build/default/production/_ext/1472/Driver_Comunicazione.o
 .debug_abbrev    0x000282        0x15b build/default/production/_ext/1472/I2C.o
 .debug_abbrev    0x0003dd        0x2e2 build/default/production/_ext/1472/Main.o
 .debug_abbrev    0x0006bf        0x252 build/default/production/_ext/1472/ProtocolloComunicazione.o
 .debug_abbrev    0x000911        0x125 build/default/production/_ext/1472/Timer.o
 .debug_abbrev    0x000a36        0x117 build/default/production/_ext/1472/usart.o
 .debug_abbrev    0x000b4d        0x159 build/default/production/_ext/1472/ADC.o
 .debug_abbrev    0x000ca6        0x26c build/default/production/_ext/1472/EEPROM.o
 .debug_abbrev    0x000f12        0x1a7 build/default/production/_ext/1472/Valvola_PassoPasso.o
 .debug_abbrev    0x0010b9        0x250 build/default/production/_ext/1472/PWM.o
 .debug_abbrev    0x001309        0x226 build/default/production/_ext/1472/Driver_ComunicazioneSec.o
 .debug_abbrev    0x00152f        0x255 build/default/production/_ext/1472/ProtocolloComunicazioneSec.o
 .debug_abbrev    0x001784        0x23b build/default/production/_ext/1472/Core.o
 .debug_abbrev    0x0019bf        0x151 build/default/production/_ext/1472/PID.o
 .debug_abbrev    0x001b10        0x180 build/default/production/_ext/1472/LCD_ScreenInfo.o
 .debug_abbrev    0x001c90         0x96 build/default/production/_ext/1472/i2c_LCD_Driver.o
 .debug_abbrev    0x001d26         0xd8 build/default/production/_ext/1472/soft_i2c.o
 .debug_abbrev    0x001dfe        0x231 build/default/production/_ext/1472/ServiceComunication.o
 .debug_abbrev    0x00202f        0x225 build/default/production/_ext/1472/Driver_ModBusSec.o
 .debug_abbrev    0x002254        0x273 build/default/production/_ext/1472/ProtocolloModBusSec.o
 .debug_abbrev    0x0024c7        0x24f build/default/production/_ext/1472/Interrupt.o
 .debug_abbrev    0x002716        0x1b2 build/default/production/_ext/1472/Driver_ModBus.o
 .debug_abbrev    0x0028c8         0xf4 build/default/production/_ext/1472/ProtocolloModBus.o

.debug_line       0x000000       0x47f9
 *(.debug_line)
 .debug_line      0x000000        0x163 build/default/production/_ext/1472/DefinePeriferiche.o
 .debug_line      0x000163        0x1ed build/default/production/_ext/1472/Driver_Comunicazione.o
 .debug_line      0x000350        0x1af build/default/production/_ext/1472/I2C.o
 .debug_line      0x0004ff        0x5d4 build/default/production/_ext/1472/Main.o
 .debug_line      0x000ad3        0x74d build/default/production/_ext/1472/ProtocolloComunicazione.o
 .debug_line      0x001220        0x144 build/default/production/_ext/1472/Timer.o
 .debug_line      0x001364        0x15f build/default/production/_ext/1472/usart.o
 .debug_line      0x0014c3        0x261 build/default/production/_ext/1472/ADC.o
 .debug_line      0x001724        0x3e9 build/default/production/_ext/1472/EEPROM.o
 .debug_line      0x001b0d        0x21f build/default/production/_ext/1472/Valvola_PassoPasso.o
 .debug_line      0x001d2c        0x366 build/default/production/_ext/1472/PWM.o
 .debug_line      0x002092        0x20e build/default/production/_ext/1472/Driver_ComunicazioneSec.o
 .debug_line      0x0022a0        0x364 build/default/production/_ext/1472/ProtocolloComunicazioneSec.o
 .debug_line      0x002604        0x79f build/default/production/_ext/1472/Core.o
 .debug_line      0x002da3         0x9f build/default/production/_ext/1472/PID.o
 .debug_line      0x002e42         0x98 build/default/production/_ext/1472/LCD_ScreenInfo.o
 .debug_line      0x002eda         0x9c build/default/production/_ext/1472/i2c_LCD_Driver.o
 .debug_line      0x002f76        0x15b build/default/production/_ext/1472/soft_i2c.o
 .debug_line      0x0030d1        0x2d2 build/default/production/_ext/1472/ServiceComunication.o
 .debug_line      0x0033a3        0x236 build/default/production/_ext/1472/Driver_ModBusSec.o
 .debug_line      0x0035d9        0xbfc build/default/production/_ext/1472/ProtocolloModBusSec.o
 .debug_line      0x0041d5        0x330 build/default/production/_ext/1472/Interrupt.o
 .debug_line      0x004505        0x209 build/default/production/_ext/1472/Driver_ModBus.o
 .debug_line      0x00470e         0xeb build/default/production/_ext/1472/ProtocolloModBus.o

.debug_frame      0x000000       0x2c8c
 *(.debug_frame)
 .debug_frame     0x000000         0x30 build/default/production/_ext/1472/DefinePeriferiche.o
 .debug_frame     0x000030        0x110 build/default/production/_ext/1472/Driver_Comunicazione.o
 .debug_frame     0x000140        0x12c build/default/production/_ext/1472/I2C.o
 .debug_frame     0x00026c        0x1bc build/default/production/_ext/1472/Main.o
 .debug_frame     0x000428         0xd8 build/default/production/_ext/1472/ProtocolloComunicazione.o
 .debug_frame     0x000500         0xd8 build/default/production/_ext/1472/Timer.o
 .debug_frame     0x0005d8        0x164 build/default/production/_ext/1472/usart.o
 .debug_frame     0x00073c        0x18c build/default/production/_ext/1472/ADC.o
 .debug_frame     0x0008c8        0x448 build/default/production/_ext/1472/EEPROM.o
 .debug_frame     0x000d10        0x1a2 build/default/production/_ext/1472/Valvola_PassoPasso.o
 .debug_frame     0x000eb2        0x2ec build/default/production/_ext/1472/PWM.o
 .debug_frame     0x00119e         0xbc build/default/production/_ext/1472/Driver_ComunicazioneSec.o
 .debug_frame     0x00125a        0x1b8 build/default/production/_ext/1472/ProtocolloComunicazioneSec.o
 .debug_frame     0x001412        0x426 build/default/production/_ext/1472/Core.o
 .debug_frame     0x001838         0xd4 build/default/production/_ext/1472/PID.o
 .debug_frame     0x00190c         0xd8 build/default/production/_ext/1472/LCD_ScreenInfo.o
 .debug_frame     0x0019e4         0xbc build/default/production/_ext/1472/i2c_LCD_Driver.o
 .debug_frame     0x001aa0        0x148 build/default/production/_ext/1472/soft_i2c.o
 .debug_frame     0x001be8        0x328 build/default/production/_ext/1472/ServiceComunication.o
 .debug_frame     0x001f10        0x110 build/default/production/_ext/1472/Driver_ModBusSec.o
 .debug_frame     0x002020        0x8b4 build/default/production/_ext/1472/ProtocolloModBusSec.o
 .debug_frame     0x0028d4        0x224 build/default/production/_ext/1472/Interrupt.o
 .debug_frame     0x002af8         0xf4 build/default/production/_ext/1472/Driver_ModBus.o
 .debug_frame     0x002bec         0xa0 build/default/production/_ext/1472/ProtocolloModBus.o

.debug_str        0x000000       0x6e4e
 *(.debug_str)
 .debug_str       0x000000        0x1a5 build/default/production/_ext/1472/DefinePeriferiche.o
 .debug_str       0x0001a5         0x5a build/default/production/_ext/1472/Driver_Comunicazione.o
 .debug_str       0x0001ff         0x2b build/default/production/_ext/1472/I2C.o
 .debug_str       0x00022a       0x1107 build/default/production/_ext/1472/Main.o
 .debug_str       0x001331        0xb22 build/default/production/_ext/1472/ProtocolloComunicazione.o
 .debug_str       0x001e53         0x25 build/default/production/_ext/1472/Timer.o
 .debug_str       0x001e78         0xad build/default/production/_ext/1472/usart.o
 .debug_str       0x001f25         0xc6 build/default/production/_ext/1472/ADC.o
 .debug_str       0x001feb        0xa66 build/default/production/_ext/1472/EEPROM.o
 .debug_str       0x002a51        0x502 build/default/production/_ext/1472/Valvola_PassoPasso.o
 .debug_str       0x002f53        0x801 build/default/production/_ext/1472/PWM.o
 .debug_str       0x003754        0x20b build/default/production/_ext/1472/Driver_ComunicazioneSec.o
 .debug_str       0x00395f        0xa36 build/default/production/_ext/1472/ProtocolloComunicazioneSec.o
 .debug_str       0x004395        0xa66 build/default/production/_ext/1472/Core.o
 .debug_str       0x004dfb        0x154 build/default/production/_ext/1472/PID.o
 .debug_str       0x004f4f        0x1fb build/default/production/_ext/1472/LCD_ScreenInfo.o
 .debug_str       0x00514a          0x9 build/default/production/_ext/1472/i2c_LCD_Driver.o
 .debug_str       0x005153         0x1d build/default/production/_ext/1472/soft_i2c.o
 .debug_str       0x005170        0x722 build/default/production/_ext/1472/ServiceComunication.o
 .debug_str       0x005892        0x215 build/default/production/_ext/1472/Driver_ModBusSec.o
 .debug_str       0x005aa7        0xb92 build/default/production/_ext/1472/ProtocolloModBusSec.o
 .debug_str       0x006639        0x748 build/default/production/_ext/1472/Interrupt.o
 .debug_str       0x006d81         0x79 build/default/production/_ext/1472/Driver_ModBus.o
 .debug_str       0x006dfa         0x54 build/default/production/_ext/1472/ProtocolloModBus.o

.debug_loc
 *(.debug_loc)

.debug_macinfo
 *(.debug_macinfo)

.debug_pubnames
                  0x000000       0x2960
 *(.debug_pubnames)
 .debug_pubnames
                  0x000000         0x1f build/default/production/_ext/1472/DefinePeriferiche.o
 .debug_pubnames
                  0x00001f         0x9b build/default/production/_ext/1472/Driver_Comunicazione.o
 .debug_pubnames
                  0x0000ba         0xab build/default/production/_ext/1472/I2C.o
 .debug_pubnames
                  0x000165        0xd63 build/default/production/_ext/1472/Main.o
 .debug_pubnames
                  0x000ec8         0x8a build/default/production/_ext/1472/ProtocolloComunicazione.o
 .debug_pubnames
                  0x000f52         0x7b build/default/production/_ext/1472/Timer.o
 .debug_pubnames
                  0x000fcd         0xa9 build/default/production/_ext/1472/usart.o
 .debug_pubnames
                  0x001076        0x1ec build/default/production/_ext/1472/ADC.o
 .debug_pubnames
                  0x001262        0x34b build/default/production/_ext/1472/EEPROM.o
 .debug_pubnames
                  0x0015ad        0x11e build/default/production/_ext/1472/Valvola_PassoPasso.o
 .debug_pubnames
                  0x0016cb        0x184 build/default/production/_ext/1472/PWM.o
 .debug_pubnames
                  0x00184f         0x7c build/default/production/_ext/1472/Driver_ComunicazioneSec.o
 .debug_pubnames
                  0x0018cb        0x166 build/default/production/_ext/1472/ProtocolloComunicazioneSec.o
 .debug_pubnames
                  0x001a31        0x1ba build/default/production/_ext/1472/Core.o
 .debug_pubnames
                  0x001beb         0x69 build/default/production/_ext/1472/PID.o
 .debug_pubnames
                  0x001c54         0x66 build/default/production/_ext/1472/LCD_ScreenInfo.o
 .debug_pubnames
                  0x001cba         0x79 build/default/production/_ext/1472/i2c_LCD_Driver.o
 .debug_pubnames
                  0x001d33         0xa9 build/default/production/_ext/1472/soft_i2c.o
 .debug_pubnames
                  0x001ddc        0x11e build/default/production/_ext/1472/ServiceComunication.o
 .debug_pubnames
                  0x001efa         0xd5 build/default/production/_ext/1472/Driver_ModBusSec.o
 .debug_pubnames
                  0x001fcf        0x780 build/default/production/_ext/1472/ProtocolloModBusSec.o
 .debug_pubnames
                  0x00274f        0x102 build/default/production/_ext/1472/Interrupt.o
 .debug_pubnames
                  0x002851         0xaa build/default/production/_ext/1472/Driver_ModBus.o
 .debug_pubnames
                  0x0028fb         0x65 build/default/production/_ext/1472/ProtocolloModBus.o

.debug_ranges
 *(.debug_ranges)

.debug_aranges    0x000000        0x240
 *(.debug_aranges)
 .debug_aranges
                  0x000000         0x18 build/default/production/_ext/1472/DefinePeriferiche.o
 .debug_aranges
                  0x000018         0x18 build/default/production/_ext/1472/Driver_Comunicazione.o
 .debug_aranges
                  0x000030         0x18 build/default/production/_ext/1472/I2C.o
 .debug_aranges
                  0x000048         0x18 build/default/production/_ext/1472/Main.o
 .debug_aranges
                  0x000060         0x18 build/default/production/_ext/1472/ProtocolloComunicazione.o
 .debug_aranges
                  0x000078         0x18 build/default/production/_ext/1472/Timer.o
 .debug_aranges
                  0x000090         0x18 build/default/production/_ext/1472/usart.o
 .debug_aranges
                  0x0000a8         0x18 build/default/production/_ext/1472/ADC.o
 .debug_aranges
                  0x0000c0         0x18 build/default/production/_ext/1472/EEPROM.o
 .debug_aranges
                  0x0000d8         0x18 build/default/production/_ext/1472/Valvola_PassoPasso.o
 .debug_aranges
                  0x0000f0         0x18 build/default/production/_ext/1472/PWM.o
 .debug_aranges
                  0x000108         0x18 build/default/production/_ext/1472/Driver_ComunicazioneSec.o
 .debug_aranges
                  0x000120         0x18 build/default/production/_ext/1472/ProtocolloComunicazioneSec.o
 .debug_aranges
                  0x000138         0x18 build/default/production/_ext/1472/Core.o
 .debug_aranges
                  0x000150         0x18 build/default/production/_ext/1472/PID.o
 .debug_aranges
                  0x000168         0x18 build/default/production/_ext/1472/LCD_ScreenInfo.o
 .debug_aranges
                  0x000180         0x18 build/default/production/_ext/1472/i2c_LCD_Driver.o
 .debug_aranges
                  0x000198         0x18 build/default/production/_ext/1472/soft_i2c.o
 .debug_aranges
                  0x0001b0         0x18 build/default/production/_ext/1472/ServiceComunication.o
 .debug_aranges
                  0x0001c8         0x18 build/default/production/_ext/1472/Driver_ModBusSec.o
 .debug_aranges
                  0x0001e0         0x18 build/default/production/_ext/1472/ProtocolloModBusSec.o
 .debug_aranges
                  0x0001f8         0x18 build/default/production/_ext/1472/Interrupt.o
 .debug_aranges
                  0x000210         0x18 build/default/production/_ext/1472/Driver_ModBus.o
 .debug_aranges
                  0x000228         0x18 build/default/production/_ext/1472/ProtocolloModBus.o
                    0x0000                  WREG0 = 0x0
                    0x0000                  _WREG0 = 0x0
                    0x0002                  WREG1 = 0x2
                    0x0002                  _WREG1 = 0x2
                    0x0004                  WREG2 = 0x4
                    0x0004                  _WREG2 = 0x4
                    0x0006                  WREG3 = 0x6
                    0x0006                  _WREG3 = 0x6
                    0x0008                  WREG4 = 0x8
                    0x0008                  _WREG4 = 0x8
                    0x000a                  WREG5 = 0xa
                    0x000a                  _WREG5 = 0xa
                    0x000c                  WREG6 = 0xc
                    0x000c                  _WREG6 = 0xc
                    0x000e                  WREG7 = 0xe
                    0x000e                  _WREG7 = 0xe
                    0x0010                  WREG8 = 0x10
                    0x0010                  _WREG8 = 0x10
                    0x0012                  WREG9 = 0x12
                    0x0012                  _WREG9 = 0x12
                    0x0014                  WREG10 = 0x14
                    0x0014                  _WREG10 = 0x14
                    0x0016                  WREG11 = 0x16
                    0x0016                  _WREG11 = 0x16
                    0x0018                  WREG12 = 0x18
                    0x0018                  _WREG12 = 0x18
                    0x001a                  WREG13 = 0x1a
                    0x001a                  _WREG13 = 0x1a
                    0x001c                  WREG14 = 0x1c
                    0x001c                  _WREG14 = 0x1c
                    0x001e                  WREG15 = 0x1e
                    0x001e                  _WREG15 = 0x1e
                    0x0020                  SPLIM = 0x20
                    0x0020                  _SPLIM = 0x20
                    0x002e                  PCL = 0x2e
                    0x002e                  _PCL = 0x2e
                    0x0030                  PCH = 0x30
                    0x0030                  _PCH = 0x30
                    0x0032                  DSRPAG = 0x32
                    0x0032                  _DSRPAG = 0x32
                    0x0034                  DSWPAG = 0x34
                    0x0034                  _DSWPAG = 0x34
                    0x0036                  RCOUNT = 0x36
                    0x0036                  _RCOUNT = 0x36
                    0x0042                  SR = 0x42
                    0x0042                  _SR = 0x42
                    0x0042                  _SRbits = 0x42
                    0x0044                  CORCON = 0x44
                    0x0044                  _CORCON = 0x44
                    0x0044                  _CORCONbits = 0x44
                    0x0052                  DISICNT = 0x52
                    0x0052                  _DISICNT = 0x52
                    0x0054                  TBLPAG = 0x54
                    0x0054                  _TBLPAG = 0x54
                    0x0056                  CNPD1 = 0x56
                    0x0056                  _CNPD1 = 0x56
                    0x0056                  _CNPD1bits = 0x56
                    0x0058                  CNPD2 = 0x58
                    0x0058                  _CNPD2 = 0x58
                    0x0058                  _CNPD2bits = 0x58
                    0x005a                  CNPD3 = 0x5a
                    0x005a                  _CNPD3 = 0x5a
                    0x005a                  _CNPD3bits = 0x5a
                    0x005c                  CNPD4 = 0x5c
                    0x005c                  _CNPD4 = 0x5c
                    0x005c                  _CNPD4bits = 0x5c
                    0x005e                  CNPD5 = 0x5e
                    0x005e                  _CNPD5 = 0x5e
                    0x005e                  _CNPD5bits = 0x5e
                    0x0060                  CNPD6 = 0x60
                    0x0060                  _CNPD6 = 0x60
                    0x0060                  _CNPD6bits = 0x60
                    0x0062                  CNEN1 = 0x62
                    0x0062                  _CNEN1 = 0x62
                    0x0062                  _CNEN1bits = 0x62
                    0x0064                  CNEN2 = 0x64
                    0x0064                  _CNEN2 = 0x64
                    0x0064                  _CNEN2bits = 0x64
                    0x0066                  CNEN3 = 0x66
                    0x0066                  _CNEN3 = 0x66
                    0x0066                  _CNEN3bits = 0x66
                    0x0068                  CNEN4 = 0x68
                    0x0068                  _CNEN4 = 0x68
                    0x0068                  _CNEN4bits = 0x68
                    0x006a                  CNEN5 = 0x6a
                    0x006a                  _CNEN5 = 0x6a
                    0x006a                  _CNEN5bits = 0x6a
                    0x006c                  CNEN6 = 0x6c
                    0x006c                  _CNEN6 = 0x6c
                    0x006c                  _CNEN6bits = 0x6c
                    0x006e                  CNPU1 = 0x6e
                    0x006e                  _CNPU1 = 0x6e
                    0x006e                  _CNPU1bits = 0x6e
                    0x0070                  CNPU2 = 0x70
                    0x0070                  _CNPU2 = 0x70
                    0x0070                  _CNPU2bits = 0x70
                    0x0072                  CNPU3 = 0x72
                    0x0072                  _CNPU3 = 0x72
                    0x0072                  _CNPU3bits = 0x72
                    0x0074                  CNPU4 = 0x74
                    0x0074                  _CNPU4 = 0x74
                    0x0074                  _CNPU4bits = 0x74
                    0x0076                  CNPU5 = 0x76
                    0x0076                  _CNPU5 = 0x76
                    0x0076                  _CNPU5bits = 0x76
                    0x0078                  CNPU6 = 0x78
                    0x0078                  _CNPU6 = 0x78
                    0x0078                  _CNPU6bits = 0x78
                    0x0080                  INTCON1 = 0x80
                    0x0080                  _INTCON1 = 0x80
                    0x0080                  _INTCON1bits = 0x80
                    0x0082                  INTCON2 = 0x82
                    0x0082                  _INTCON2 = 0x82
                    0x0082                  _INTCON2bits = 0x82
                    0x0084                  IFS0 = 0x84
                    0x0084                  _IFS0 = 0x84
                    0x0084                  _IFS0bits = 0x84
                    0x0086                  IFS1 = 0x86
                    0x0086                  _IFS1 = 0x86
                    0x0086                  _IFS1bits = 0x86
                    0x0088                  IFS2 = 0x88
                    0x0088                  _IFS2 = 0x88
                    0x0088                  _IFS2bits = 0x88
                    0x008a                  IFS3 = 0x8a
                    0x008a                  _IFS3 = 0x8a
                    0x008a                  _IFS3bits = 0x8a
                    0x008c                  IFS4 = 0x8c
                    0x008c                  _IFS4 = 0x8c
                    0x008c                  _IFS4bits = 0x8c
                    0x008e                  IFS5 = 0x8e
                    0x008e                  _IFS5 = 0x8e
                    0x008e                  _IFS5bits = 0x8e
                    0x0094                  IEC0 = 0x94
                    0x0094                  _IEC0 = 0x94
                    0x0094                  _IEC0bits = 0x94
                    0x0096                  IEC1 = 0x96
                    0x0096                  _IEC1 = 0x96
                    0x0096                  _IEC1bits = 0x96
                    0x0098                  IEC2 = 0x98
                    0x0098                  _IEC2 = 0x98
                    0x0098                  _IEC2bits = 0x98
                    0x009a                  IEC3 = 0x9a
                    0x009a                  _IEC3 = 0x9a
                    0x009a                  _IEC3bits = 0x9a
                    0x009c                  IEC4 = 0x9c
                    0x009c                  _IEC4 = 0x9c
                    0x009c                  _IEC4bits = 0x9c
                    0x009e                  IEC5 = 0x9e
                    0x009e                  _IEC5 = 0x9e
                    0x009e                  _IEC5bits = 0x9e
                    0x00a4                  IPC0 = 0xa4
                    0x00a4                  _IPC0 = 0xa4
                    0x00a4                  _IPC0bits = 0xa4
                    0x00a6                  IPC1 = 0xa6
                    0x00a6                  _IPC1 = 0xa6
                    0x00a6                  _IPC1bits = 0xa6
                    0x00a8                  IPC2 = 0xa8
                    0x00a8                  _IPC2 = 0xa8
                    0x00a8                  _IPC2bits = 0xa8
                    0x00aa                  IPC3 = 0xaa
                    0x00aa                  _IPC3 = 0xaa
                    0x00aa                  _IPC3bits = 0xaa
                    0x00ac                  IPC4 = 0xac
                    0x00ac                  _IPC4 = 0xac
                    0x00ac                  _IPC4bits = 0xac
                    0x00ae                  IPC5 = 0xae
                    0x00ae                  _IPC5 = 0xae
                    0x00ae                  _IPC5bits = 0xae
                    0x00b0                  IPC6 = 0xb0
                    0x00b0                  _IPC6 = 0xb0
                    0x00b0                  _IPC6bits = 0xb0
                    0x00b2                  IPC7 = 0xb2
                    0x00b2                  _IPC7 = 0xb2
                    0x00b2                  _IPC7bits = 0xb2
                    0x00b4                  IPC8 = 0xb4
                    0x00b4                  _IPC8 = 0xb4
                    0x00b4                  _IPC8bits = 0xb4
                    0x00b6                  IPC9 = 0xb6
                    0x00b6                  _IPC9 = 0xb6
                    0x00b6                  _IPC9bits = 0xb6
                    0x00b8                  IPC10 = 0xb8
                    0x00b8                  _IPC10 = 0xb8
                    0x00b8                  _IPC10bits = 0xb8
                    0x00ba                  IPC11 = 0xba
                    0x00ba                  _IPC11 = 0xba
                    0x00ba                  _IPC11bits = 0xba
                    0x00bc                  IPC12 = 0xbc
                    0x00bc                  _IPC12 = 0xbc
                    0x00bc                  _IPC12bits = 0xbc
                    0x00be                  IPC13 = 0xbe
                    0x00be                  _IPC13 = 0xbe
                    0x00be                  _IPC13bits = 0xbe
                    0x00c2                  IPC15 = 0xc2
                    0x00c2                  _IPC15 = 0xc2
                    0x00c2                  _IPC15bits = 0xc2
                    0x00c4                  IPC16 = 0xc4
                    0x00c4                  _IPC16 = 0xc4
                    0x00c4                  _IPC16bits = 0xc4
                    0x00c8                  IPC18 = 0xc8
                    0x00c8                  _IPC18 = 0xc8
                    0x00c8                  _IPC18bits = 0xc8
                    0x00ca                  IPC19 = 0xca
                    0x00ca                  _IPC19 = 0xca
                    0x00ca                  _IPC19bits = 0xca
                    0x00cc                  IPC20 = 0xcc
                    0x00cc                  _IPC20 = 0xcc
                    0x00cc                  _IPC20bits = 0xcc
                    0x00ce                  IPC21 = 0xce
                    0x00ce                  _IPC21 = 0xce
                    0x00ce                  _IPC21bits = 0xce
                    0x00d0                  IPC22 = 0xd0
                    0x00d0                  _IPC22 = 0xd0
                    0x00d0                  _IPC22bits = 0xd0
                    0x00d2                  IPC23 = 0xd2
                    0x00d2                  _IPC23 = 0xd2
                    0x00d2                  _IPC23bits = 0xd2
                    0x00e0                  INTTREG = 0xe0
                    0x00e0                  _INTTREG = 0xe0
                    0x00e0                  _INTTREGbits = 0xe0
                    0x0100                  TMR1 = 0x100
                    0x0100                  _TMR1 = 0x100
                    0x0102                  PR1 = 0x102
                    0x0102                  _PR1 = 0x102
                    0x0104                  T1CON = 0x104
                    0x0104                  _T1CON = 0x104
                    0x0104                  _T1CONbits = 0x104
                    0x0106                  TMR2 = 0x106
                    0x0106                  _TMR2 = 0x106
                    0x0108                  TMR3HLD = 0x108
                    0x0108                  _TMR3HLD = 0x108
                    0x010a                  TMR3 = 0x10a
                    0x010a                  _TMR3 = 0x10a
                    0x010c                  PR2 = 0x10c
                    0x010c                  _PR2 = 0x10c
                    0x010e                  PR3 = 0x10e
                    0x010e                  _PR3 = 0x10e
                    0x0110                  T2CON = 0x110
                    0x0110                  _T2CON = 0x110
                    0x0110                  _T2CONbits = 0x110
                    0x0112                  T3CON = 0x112
                    0x0112                  _T3CON = 0x112
                    0x0112                  _T3CONbits = 0x112
                    0x0114                  TMR4 = 0x114
                    0x0114                  _TMR4 = 0x114
                    0x0116                  TMR5HLD = 0x116
                    0x0116                  _TMR5HLD = 0x116
                    0x0118                  TMR5 = 0x118
                    0x0118                  _TMR5 = 0x118
                    0x011a                  PR4 = 0x11a
                    0x011a                  _PR4 = 0x11a
                    0x011c                  PR5 = 0x11c
                    0x011c                  _PR5 = 0x11c
                    0x011e                  T4CON = 0x11e
                    0x011e                  _T4CON = 0x11e
                    0x011e                  _T4CONbits = 0x11e
                    0x0120                  T5CON = 0x120
                    0x0120                  _T5CON = 0x120
                    0x0120                  _T5CONbits = 0x120
                    0x0140                  IC1CON1 = 0x140
                    0x0140                  _IC1CON1 = 0x140
                    0x0140                  _IC1CON1bits = 0x140
                    0x0142                  IC1CON2 = 0x142
                    0x0142                  _IC1CON2 = 0x142
                    0x0142                  _IC1CON2bits = 0x142
                    0x0144                  IC1BUF = 0x144
                    0x0144                  _IC1BUF = 0x144
                    0x0146                  IC1TMR = 0x146
                    0x0146                  _IC1TMR = 0x146
                    0x0148                  IC2CON1 = 0x148
                    0x0148                  _IC2CON1 = 0x148
                    0x0148                  _IC2CON1bits = 0x148
                    0x014a                  IC2CON2 = 0x14a
                    0x014a                  _IC2CON2 = 0x14a
                    0x014a                  _IC2CON2bits = 0x14a
                    0x014c                  IC2BUF = 0x14c
                    0x014c                  _IC2BUF = 0x14c
                    0x014e                  IC2TMR = 0x14e
                    0x014e                  _IC2TMR = 0x14e
                    0x0150                  IC3CON1 = 0x150
                    0x0150                  _IC3CON1 = 0x150
                    0x0150                  _IC3CON1bits = 0x150
                    0x0152                  IC3CON2 = 0x152
                    0x0152                  _IC3CON2 = 0x152
                    0x0152                  _IC3CON2bits = 0x152
                    0x0154                  IC3BUF = 0x154
                    0x0154                  _IC3BUF = 0x154
                    0x0156                  IC3TMR = 0x156
                    0x0156                  _IC3TMR = 0x156
                    0x0158                  IC4CON1 = 0x158
                    0x0158                  _IC4CON1 = 0x158
                    0x0158                  _IC4CON1bits = 0x158
                    0x015a                  IC4CON2 = 0x15a
                    0x015a                  _IC4CON2 = 0x15a
                    0x015a                  _IC4CON2bits = 0x15a
                    0x015c                  IC4BUF = 0x15c
                    0x015c                  _IC4BUF = 0x15c
                    0x015e                  IC4TMR = 0x15e
                    0x015e                  _IC4TMR = 0x15e
                    0x0160                  IC5CON1 = 0x160
                    0x0160                  _IC5CON1 = 0x160
                    0x0160                  _IC5CON1bits = 0x160
                    0x0162                  IC5CON2 = 0x162
                    0x0162                  _IC5CON2 = 0x162
                    0x0162                  _IC5CON2bits = 0x162
                    0x0164                  IC5BUF = 0x164
                    0x0164                  _IC5BUF = 0x164
                    0x0166                  IC5TMR = 0x166
                    0x0166                  _IC5TMR = 0x166
                    0x0168                  IC6CON1 = 0x168
                    0x0168                  _IC6CON1 = 0x168
                    0x0168                  _IC6CON1bits = 0x168
                    0x016a                  IC6CON2 = 0x16a
                    0x016a                  _IC6CON2 = 0x16a
                    0x016a                  _IC6CON2bits = 0x16a
                    0x016c                  IC6BUF = 0x16c
                    0x016c                  _IC6BUF = 0x16c
                    0x016e                  IC6TMR = 0x16e
                    0x016e                  _IC6TMR = 0x16e
                    0x0170                  IC7CON1 = 0x170
                    0x0170                  _IC7CON1 = 0x170
                    0x0170                  _IC7CON1bits = 0x170
                    0x0172                  IC7CON2 = 0x172
                    0x0172                  _IC7CON2 = 0x172
                    0x0172                  _IC7CON2bits = 0x172
                    0x0174                  IC7BUF = 0x174
                    0x0174                  _IC7BUF = 0x174
                    0x0176                  IC7TMR = 0x176
                    0x0176                  _IC7TMR = 0x176
                    0x0178                  IC8CON1 = 0x178
                    0x0178                  _IC8CON1 = 0x178
                    0x0178                  _IC8CON1bits = 0x178
                    0x017a                  IC8CON2 = 0x17a
                    0x017a                  _IC8CON2 = 0x17a
                    0x017a                  _IC8CON2bits = 0x17a
                    0x017c                  IC8BUF = 0x17c
                    0x017c                  _IC8BUF = 0x17c
                    0x017e                  IC8TMR = 0x17e
                    0x017e                  _IC8TMR = 0x17e
                    0x0180                  IC9CON1 = 0x180
                    0x0180                  _IC9CON1 = 0x180
                    0x0180                  _IC9CON1bits = 0x180
                    0x0182                  IC9CON2 = 0x182
                    0x0182                  _IC9CON2 = 0x182
                    0x0182                  _IC9CON2bits = 0x182
                    0x0184                  IC9BUF = 0x184
                    0x0184                  _IC9BUF = 0x184
                    0x0186                  IC9TMR = 0x186
                    0x0186                  _IC9TMR = 0x186
                    0x0190                  OC1CON1 = 0x190
                    0x0190                  _OC1CON1 = 0x190
                    0x0190                  _OC1CON1bits = 0x190
                    0x0192                  OC1CON2 = 0x192
                    0x0192                  _OC1CON2 = 0x192
                    0x0192                  _OC1CON2bits = 0x192
                    0x0194                  OC1RS = 0x194
                    0x0194                  _OC1RS = 0x194
                    0x0196                  OC1R = 0x196
                    0x0196                  _OC1R = 0x196
                    0x0198                  OC1TMR = 0x198
                    0x0198                  _OC1TMR = 0x198
                    0x019a                  OC2CON1 = 0x19a
                    0x019a                  _OC2CON1 = 0x19a
                    0x019a                  _OC2CON1bits = 0x19a
                    0x019c                  OC2CON2 = 0x19c
                    0x019c                  _OC2CON2 = 0x19c
                    0x019c                  _OC2CON2bits = 0x19c
                    0x019e                  OC2RS = 0x19e
                    0x019e                  _OC2RS = 0x19e
                    0x01a0                  OC2R = 0x1a0
                    0x01a0                  _OC2R = 0x1a0
                    0x01a2                  OC2TMR = 0x1a2
                    0x01a2                  _OC2TMR = 0x1a2
                    0x01a4                  OC3CON1 = 0x1a4
                    0x01a4                  _OC3CON1 = 0x1a4
                    0x01a4                  _OC3CON1bits = 0x1a4
                    0x01a6                  OC3CON2 = 0x1a6
                    0x01a6                  _OC3CON2 = 0x1a6
                    0x01a6                  _OC3CON2bits = 0x1a6
                    0x01a8                  OC3RS = 0x1a8
                    0x01a8                  _OC3RS = 0x1a8
                    0x01aa                  OC3R = 0x1aa
                    0x01aa                  _OC3R = 0x1aa
                    0x01ac                  OC3TMR = 0x1ac
                    0x01ac                  _OC3TMR = 0x1ac
                    0x01ae                  OC4CON1 = 0x1ae
                    0x01ae                  _OC4CON1 = 0x1ae
                    0x01ae                  _OC4CON1bits = 0x1ae
                    0x01b0                  OC4CON2 = 0x1b0
                    0x01b0                  _OC4CON2 = 0x1b0
                    0x01b0                  _OC4CON2bits = 0x1b0
                    0x01b2                  OC4RS = 0x1b2
                    0x01b2                  _OC4RS = 0x1b2
                    0x01b4                  OC4R = 0x1b4
                    0x01b4                  _OC4R = 0x1b4
                    0x01b6                  OC4TMR = 0x1b6
                    0x01b6                  _OC4TMR = 0x1b6
                    0x01b8                  OC5CON1 = 0x1b8
                    0x01b8                  _OC5CON1 = 0x1b8
                    0x01b8                  _OC5CON1bits = 0x1b8
                    0x01ba                  OC5CON2 = 0x1ba
                    0x01ba                  _OC5CON2 = 0x1ba
                    0x01ba                  _OC5CON2bits = 0x1ba
                    0x01bc                  OC5RS = 0x1bc
                    0x01bc                  _OC5RS = 0x1bc
                    0x01be                  OC5R = 0x1be
                    0x01be                  _OC5R = 0x1be
                    0x01c0                  OC5TMR = 0x1c0
                    0x01c0                  _OC5TMR = 0x1c0
                    0x01c2                  OC6CON1 = 0x1c2
                    0x01c2                  _OC6CON1 = 0x1c2
                    0x01c2                  _OC6CON1bits = 0x1c2
                    0x01c4                  OC6CON2 = 0x1c4
                    0x01c4                  _OC6CON2 = 0x1c4
                    0x01c4                  _OC6CON2bits = 0x1c4
                    0x01c6                  OC6RS = 0x1c6
                    0x01c6                  _OC6RS = 0x1c6
                    0x01c8                  OC6R = 0x1c8
                    0x01c8                  _OC6R = 0x1c8
                    0x01ca                  OC6TMR = 0x1ca
                    0x01ca                  _OC6TMR = 0x1ca
                    0x01cc                  OC7CON1 = 0x1cc
                    0x01cc                  _OC7CON1 = 0x1cc
                    0x01cc                  _OC7CON1bits = 0x1cc
                    0x01ce                  OC7CON2 = 0x1ce
                    0x01ce                  _OC7CON2 = 0x1ce
                    0x01ce                  _OC7CON2bits = 0x1ce
                    0x01d0                  OC7RS = 0x1d0
                    0x01d0                  _OC7RS = 0x1d0
                    0x01d2                  OC7R = 0x1d2
                    0x01d2                  _OC7R = 0x1d2
                    0x01d4                  OC7TMR = 0x1d4
                    0x01d4                  _OC7TMR = 0x1d4
                    0x01d6                  OC8CON1 = 0x1d6
                    0x01d6                  _OC8CON1 = 0x1d6
                    0x01d6                  _OC8CON1bits = 0x1d6
                    0x01d8                  OC8CON2 = 0x1d8
                    0x01d8                  _OC8CON2 = 0x1d8
                    0x01d8                  _OC8CON2bits = 0x1d8
                    0x01da                  OC8RS = 0x1da
                    0x01da                  _OC8RS = 0x1da
                    0x01dc                  OC8R = 0x1dc
                    0x01dc                  _OC8R = 0x1dc
                    0x01de                  OC8TMR = 0x1de
                    0x01de                  _OC8TMR = 0x1de
                    0x01e0                  OC9CON1 = 0x1e0
                    0x01e0                  _OC9CON1 = 0x1e0
                    0x01e0                  _OC9CON1bits = 0x1e0
                    0x01e2                  OC9CON2 = 0x1e2
                    0x01e2                  _OC9CON2 = 0x1e2
                    0x01e2                  _OC9CON2bits = 0x1e2
                    0x01e4                  OC9RS = 0x1e4
                    0x01e4                  _OC9RS = 0x1e4
                    0x01e6                  OC9R = 0x1e6
                    0x01e6                  _OC9R = 0x1e6
                    0x01e8                  OC9TMR = 0x1e8
                    0x01e8                  _OC9TMR = 0x1e8
                    0x0200                  I2C1RCV = 0x200
                    0x0200                  _I2C1RCV = 0x200
                    0x0202                  I2C1TRN = 0x202
                    0x0202                  _I2C1TRN = 0x202
                    0x0204                  I2C1BRG = 0x204
                    0x0204                  _I2C1BRG = 0x204
                    0x0206                  I2C1CON = 0x206
                    0x0206                  _I2C1CON = 0x206
                    0x0206                  _I2C1CONbits = 0x206
                    0x0208                  I2C1STAT = 0x208
                    0x0208                  _I2C1STAT = 0x208
                    0x0208                  _I2C1STATbits = 0x208
                    0x020a                  I2C1ADD = 0x20a
                    0x020a                  _I2C1ADD = 0x20a
                    0x020c                  I2C1MSK = 0x20c
                    0x020c                  _I2C1MSK = 0x20c
                    0x0210                  I2C2RCV = 0x210
                    0x0210                  _I2C2RCV = 0x210
                    0x0212                  I2C2TRN = 0x212
                    0x0212                  _I2C2TRN = 0x212
                    0x0214                  I2C2BRG = 0x214
                    0x0214                  _I2C2BRG = 0x214
                    0x0216                  I2C2CON = 0x216
                    0x0216                  _I2C2CON = 0x216
                    0x0216                  _I2C2CONbits = 0x216
                    0x0218                  I2C2STAT = 0x218
                    0x0218                  _I2C2STAT = 0x218
                    0x0218                  _I2C2STATbits = 0x218
                    0x021a                  I2C2ADD = 0x21a
                    0x021a                  _I2C2ADD = 0x21a
                    0x021c                  I2C2MSK = 0x21c
                    0x021c                  _I2C2MSK = 0x21c
                    0x0220                  U1MODE = 0x220
                    0x0220                  _U1MODE = 0x220
                    0x0220                  _U1MODEbits = 0x220
                    0x0222                  U1STA = 0x222
                    0x0222                  _U1STA = 0x222
                    0x0222                  _U1STAbits = 0x222
                    0x0224                  U1TXREG = 0x224
                    0x0224                  _U1TXREG = 0x224
                    0x0224                  _U1TXREGbits = 0x224
                    0x0226                  U1RXREG = 0x226
                    0x0226                  _U1RXREG = 0x226
                    0x0226                  _U1RXREGbits = 0x226
                    0x0228                  U1BRG = 0x228
                    0x0228                  _U1BRG = 0x228
                    0x0230                  U2MODE = 0x230
                    0x0230                  _U2MODE = 0x230
                    0x0230                  _U2MODEbits = 0x230
                    0x0232                  U2STA = 0x232
                    0x0232                  _U2STA = 0x232
                    0x0232                  _U2STAbits = 0x232
                    0x0234                  U2TXREG = 0x234
                    0x0234                  _U2TXREG = 0x234
                    0x0234                  _U2TXREGbits = 0x234
                    0x0236                  U2RXREG = 0x236
                    0x0236                  _U2RXREG = 0x236
                    0x0236                  _U2RXREGbits = 0x236
                    0x0238                  U2BRG = 0x238
                    0x0238                  _U2BRG = 0x238
                    0x0240                  SPI1STAT = 0x240
                    0x0240                  _SPI1STAT = 0x240
                    0x0240                  _SPI1STATbits = 0x240
                    0x0242                  SPI1CON1 = 0x242
                    0x0242                  _SPI1CON1 = 0x242
                    0x0242                  _SPI1CON1bits = 0x242
                    0x0244                  SPI1CON2 = 0x244
                    0x0244                  _SPI1CON2 = 0x244
                    0x0244                  _SPI1CON2bits = 0x244
                    0x0248                  SPI1BUF = 0x248
                    0x0248                  _SPI1BUF = 0x248
                    0x0250                  U3MODE = 0x250
                    0x0250                  _U3MODE = 0x250
                    0x0250                  _U3MODEbits = 0x250
                    0x0252                  U3STA = 0x252
                    0x0252                  _U3STA = 0x252
                    0x0252                  _U3STAbits = 0x252
                    0x0254                  U3TXREG = 0x254
                    0x0254                  _U3TXREG = 0x254
                    0x0254                  _U3TXREGbits = 0x254
                    0x0256                  U3RXREG = 0x256
                    0x0256                  _U3RXREG = 0x256
                    0x0256                  _U3RXREGbits = 0x256
                    0x0258                  U3BRG = 0x258
                    0x0258                  _U3BRG = 0x258
                    0x0260                  SPI2STAT = 0x260
                    0x0260                  _SPI2STAT = 0x260
                    0x0260                  _SPI2STATbits = 0x260
                    0x0262                  SPI2CON1 = 0x262
                    0x0262                  _SPI2CON1 = 0x262
                    0x0262                  _SPI2CON1bits = 0x262
                    0x0264                  SPI2CON2 = 0x264
                    0x0264                  _SPI2CON2 = 0x264
                    0x0264                  _SPI2CON2bits = 0x264
                    0x0268                  SPI2BUF = 0x268
                    0x0268                  _SPI2BUF = 0x268
                    0x0270                  I2C3RCV = 0x270
                    0x0270                  _I2C3RCV = 0x270
                    0x0272                  I2C3TRN = 0x272
                    0x0272                  _I2C3TRN = 0x272
                    0x0274                  I2C3BRG = 0x274
                    0x0274                  _I2C3BRG = 0x274
                    0x0276                  I2C3CON = 0x276
                    0x0276                  _I2C3CON = 0x276
                    0x0276                  _I2C3CONbits = 0x276
                    0x0278                  I2C3STAT = 0x278
                    0x0278                  _I2C3STAT = 0x278
                    0x0278                  _I2C3STATbits = 0x278
                    0x027a                  I2C3ADD = 0x27a
                    0x027a                  _I2C3ADD = 0x27a
                    0x027c                  I2C3MSK = 0x27c
                    0x027c                  _I2C3MSK = 0x27c
                    0x0280                  SPI3STAT = 0x280
                    0x0280                  _SPI3STAT = 0x280
                    0x0280                  _SPI3STATbits = 0x280
                    0x0282                  SPI3CON1 = 0x282
                    0x0282                  _SPI3CON1 = 0x282
                    0x0282                  _SPI3CON1bits = 0x282
                    0x0284                  SPI3CON2 = 0x284
                    0x0284                  _SPI3CON2 = 0x284
                    0x0284                  _SPI3CON2bits = 0x284
                    0x0288                  SPI3BUF = 0x288
                    0x0288                  _SPI3BUF = 0x288
                    0x02b0                  U4MODE = 0x2b0
                    0x02b0                  _U4MODE = 0x2b0
                    0x02b0                  _U4MODEbits = 0x2b0
                    0x02b2                  U4STA = 0x2b2
                    0x02b2                  _U4STA = 0x2b2
                    0x02b2                  _U4STAbits = 0x2b2
                    0x02b4                  U4TXREG = 0x2b4
                    0x02b4                  _U4TXREG = 0x2b4
                    0x02b4                  _U4TXREGbits = 0x2b4
                    0x02b6                  U4RXREG = 0x2b6
                    0x02b6                  _U4RXREG = 0x2b6
                    0x02b6                  _U4RXREGbits = 0x2b6
                    0x02b8                  U4BRG = 0x2b8
                    0x02b8                  _U4BRG = 0x2b8
                    0x02c0                  TRISA = 0x2c0
                    0x02c0                  _TRISA = 0x2c0
                    0x02c0                  _TRISAbits = 0x2c0
                    0x02c2                  PORTA = 0x2c2
                    0x02c2                  _PORTA = 0x2c2
                    0x02c2                  _PORTAbits = 0x2c2
                    0x02c4                  LATA = 0x2c4
                    0x02c4                  _LATA = 0x2c4
                    0x02c4                  _LATAbits = 0x2c4
                    0x02c6                  ODCA = 0x2c6
                    0x02c6                  _ODCA = 0x2c6
                    0x02c6                  _ODCAbits = 0x2c6
                    0x02c8                  TRISB = 0x2c8
                    0x02c8                  _TRISB = 0x2c8
                    0x02c8                  _TRISBbits = 0x2c8
                    0x02ca                  PORTB = 0x2ca
                    0x02ca                  _PORTB = 0x2ca
                    0x02ca                  _PORTBbits = 0x2ca
                    0x02cc                  LATB = 0x2cc
                    0x02cc                  _LATB = 0x2cc
                    0x02cc                  _LATBbits = 0x2cc
                    0x02ce                  ODCB = 0x2ce
                    0x02ce                  _ODCB = 0x2ce
                    0x02ce                  _ODCBbits = 0x2ce
                    0x02d0                  TRISC = 0x2d0
                    0x02d0                  _TRISC = 0x2d0
                    0x02d0                  _TRISCbits = 0x2d0
                    0x02d2                  PORTC = 0x2d2
                    0x02d2                  _PORTC = 0x2d2
                    0x02d2                  _PORTCbits = 0x2d2
                    0x02d4                  LATC = 0x2d4
                    0x02d4                  _LATC = 0x2d4
                    0x02d4                  _LATCbits = 0x2d4
                    0x02d6                  ODCC = 0x2d6
                    0x02d6                  _ODCC = 0x2d6
                    0x02d6                  _ODCCbits = 0x2d6
                    0x02d8                  TRISD = 0x2d8
                    0x02d8                  _TRISD = 0x2d8
                    0x02d8                  _TRISDbits = 0x2d8
                    0x02da                  PORTD = 0x2da
                    0x02da                  _PORTD = 0x2da
                    0x02da                  _PORTDbits = 0x2da
                    0x02dc                  LATD = 0x2dc
                    0x02dc                  _LATD = 0x2dc
                    0x02dc                  _LATDbits = 0x2dc
                    0x02de                  ODCD = 0x2de
                    0x02de                  _ODCD = 0x2de
                    0x02de                  _ODCDbits = 0x2de
                    0x02e0                  TRISE = 0x2e0
                    0x02e0                  _TRISE = 0x2e0
                    0x02e0                  _TRISEbits = 0x2e0
                    0x02e2                  PORTE = 0x2e2
                    0x02e2                  _PORTE = 0x2e2
                    0x02e2                  _PORTEbits = 0x2e2
                    0x02e4                  LATE = 0x2e4
                    0x02e4                  _LATE = 0x2e4
                    0x02e4                  _LATEbits = 0x2e4
                    0x02e6                  ODCE = 0x2e6
                    0x02e6                  _ODCE = 0x2e6
                    0x02e6                  _ODCEbits = 0x2e6
                    0x02e8                  TRISF = 0x2e8
                    0x02e8                  _TRISF = 0x2e8
                    0x02e8                  _TRISFbits = 0x2e8
                    0x02ea                  PORTF = 0x2ea
                    0x02ea                  _PORTF = 0x2ea
                    0x02ea                  _PORTFbits = 0x2ea
                    0x02ec                  LATF = 0x2ec
                    0x02ec                  _LATF = 0x2ec
                    0x02ec                  _LATFbits = 0x2ec
                    0x02ee                  ODCF = 0x2ee
                    0x02ee                  _ODCF = 0x2ee
                    0x02ee                  _ODCFbits = 0x2ee
                    0x02f0                  TRISG = 0x2f0
                    0x02f0                  _TRISG = 0x2f0
                    0x02f0                  _TRISGbits = 0x2f0
                    0x02f2                  PORTG = 0x2f2
                    0x02f2                  _PORTG = 0x2f2
                    0x02f2                  _PORTGbits = 0x2f2
                    0x02f4                  LATG = 0x2f4
                    0x02f4                  _LATG = 0x2f4
                    0x02f4                  _LATGbits = 0x2f4
                    0x02f6                  ODCG = 0x2f6
                    0x02f6                  _ODCG = 0x2f6
                    0x02f6                  _ODCGbits = 0x2f6
                    0x02fc                  PADCFG1 = 0x2fc
                    0x02fc                  _PADCFG1 = 0x2fc
                    0x02fc                  _PADCFG1bits = 0x2fc
                    0x0300                  ADC1BUF0 = 0x300
                    0x0300                  _ADC1BUF0 = 0x300
                    0x0302                  ADC1BUF1 = 0x302
                    0x0302                  _ADC1BUF1 = 0x302
                    0x0304                  ADC1BUF2 = 0x304
                    0x0304                  _ADC1BUF2 = 0x304
                    0x0306                  ADC1BUF3 = 0x306
                    0x0306                  _ADC1BUF3 = 0x306
                    0x0308                  ADC1BUF4 = 0x308
                    0x0308                  _ADC1BUF4 = 0x308
                    0x030a                  ADC1BUF5 = 0x30a
                    0x030a                  _ADC1BUF5 = 0x30a
                    0x030c                  ADC1BUF6 = 0x30c
                    0x030c                  _ADC1BUF6 = 0x30c
                    0x030e                  ADC1BUF7 = 0x30e
                    0x030e                  _ADC1BUF7 = 0x30e
                    0x0310                  ADC1BUF8 = 0x310
                    0x0310                  _ADC1BUF8 = 0x310
                    0x0312                  ADC1BUF9 = 0x312
                    0x0312                  _ADC1BUF9 = 0x312
                    0x0314                  ADC1BUFA = 0x314
                    0x0314                  _ADC1BUFA = 0x314
                    0x0316                  ADC1BUFB = 0x316
                    0x0316                  _ADC1BUFB = 0x316
                    0x0318                  ADC1BUFC = 0x318
                    0x0318                  _ADC1BUFC = 0x318
                    0x031a                  ADC1BUFD = 0x31a
                    0x031a                  _ADC1BUFD = 0x31a
                    0x031c                  ADC1BUFE = 0x31c
                    0x031c                  _ADC1BUFE = 0x31c
                    0x031e                  ADC1BUFF = 0x31e
                    0x031e                  _ADC1BUFF = 0x31e
                    0x0320                  AD1CON1 = 0x320
                    0x0320                  _AD1CON1 = 0x320
                    0x0320                  _AD1CON1bits = 0x320
                    0x0322                  AD1CON2 = 0x322
                    0x0322                  _AD1CON2 = 0x322
                    0x0322                  _AD1CON2bits = 0x322
                    0x0324                  AD1CON3 = 0x324
                    0x0324                  _AD1CON3 = 0x324
                    0x0324                  _AD1CON3bits = 0x324
                    0x0328                  AD1CHS = 0x328
                    0x0328                  _AD1CHS = 0x328
                    0x0328                  _AD1CHSbits = 0x328
                    0x0328                  AD1CHS0 = 0x328
                    0x0328                  _AD1CHS0 = 0x328
                    0x0328                  _AD1CHS0bits = 0x328
                    0x032e                  AD1CSSH = 0x32e
                    0x032e                  _AD1CSSH = 0x32e
                    0x032e                  _AD1CSSHbits = 0x32e
                    0x0330                  AD1CSSL = 0x330
                    0x0330                  _AD1CSSL = 0x330
                    0x0330                  _AD1CSSLbits = 0x330
                    0x033c                  CTMUCON = 0x33c
                    0x033c                  _CTMUCON = 0x33c
                    0x033c                  _CTMUCONbits = 0x33c
                    0x033e                  CTMUICON = 0x33e
                    0x033e                  _CTMUICON = 0x33e
                    0x033e                  _CTMUICONbits = 0x33e
                    0x0340                  ADC1BUF10 = 0x340
                    0x0340                  _ADC1BUF10 = 0x340
                    0x0342                  ADC1BUF11 = 0x342
                    0x0342                  _ADC1BUF11 = 0x342
                    0x0344                  ADC1BUF12 = 0x344
                    0x0344                  _ADC1BUF12 = 0x344
                    0x0346                  ADC1BUF13 = 0x346
                    0x0346                  _ADC1BUF13 = 0x346
                    0x0348                  ADC1BUF14 = 0x348
                    0x0348                  _ADC1BUF14 = 0x348
                    0x034a                  ADC1BUF15 = 0x34a
                    0x034a                  _ADC1BUF15 = 0x34a
                    0x034c                  ADC1BUF16 = 0x34c
                    0x034c                  _ADC1BUF16 = 0x34c
                    0x034e                  ADC1BUF17 = 0x34e
                    0x034e                  _ADC1BUF17 = 0x34e
                    0x0350                  ADC1BUF18 = 0x350
                    0x0350                  _ADC1BUF18 = 0x350
                    0x0352                  ADC1BUF19 = 0x352
                    0x0352                  _ADC1BUF19 = 0x352
                    0x0354                  ADC1BUF1A = 0x354
                    0x0354                  _ADC1BUF1A = 0x354
                    0x0356                  ADC1BUF1B = 0x356
                    0x0356                  _ADC1BUF1B = 0x356
                    0x0358                  ADC1BUF1C = 0x358
                    0x0358                  _ADC1BUF1C = 0x358
                    0x035a                  ADC1BUF1D = 0x35a
                    0x035a                  _ADC1BUF1D = 0x35a
                    0x035c                  ADC1BUF1E = 0x35c
                    0x035c                  _ADC1BUF1E = 0x35c
                    0x035e                  ADC1BUF1F = 0x35e
                    0x035e                  _ADC1BUF1F = 0x35e
                    0x0480                  U1OTGIR = 0x480
                    0x0480                  _U1OTGIR = 0x480
                    0x0480                  _U1OTGIRbits = 0x480
                    0x0482                  U1OTGIE = 0x482
                    0x0482                  _U1OTGIE = 0x482
                    0x0482                  _U1OTGIEbits = 0x482
                    0x0484                  U1OTGSTAT = 0x484
                    0x0484                  _U1OTGSTAT = 0x484
                    0x0484                  _U1OTGSTATbits = 0x484
                    0x0486                  U1OTGCON = 0x486
                    0x0486                  _U1OTGCON = 0x486
                    0x0486                  _U1OTGCONbits = 0x486
                    0x0488                  U1PWRC = 0x488
                    0x0488                  _U1PWRC = 0x488
                    0x0488                  _U1PWRCbits = 0x488
                    0x048a                  U1IR = 0x48a
                    0x048a                  _U1IR = 0x48a
                    0x048a                  _U1IRbits = 0x48a
                    0x048c                  U1IE = 0x48c
                    0x048c                  _U1IE = 0x48c
                    0x048c                  _U1IEbits = 0x48c
                    0x048e                  U1EIR = 0x48e
                    0x048e                  _U1EIR = 0x48e
                    0x048e                  _U1EIRbits = 0x48e
                    0x0490                  U1EIE = 0x490
                    0x0490                  _U1EIE = 0x490
                    0x0490                  _U1EIEbits = 0x490
                    0x0492                  U1STAT = 0x492
                    0x0492                  _U1STAT = 0x492
                    0x0492                  _U1STATbits = 0x492
                    0x0494                  U1CON = 0x494
                    0x0494                  _U1CON = 0x494
                    0x0494                  _U1CONbits = 0x494
                    0x0496                  U1ADDR = 0x496
                    0x0496                  _U1ADDR = 0x496
                    0x0496                  _U1ADDRbits = 0x496
                    0x0498                  U1BDTP1 = 0x498
                    0x0498                  _U1BDTP1 = 0x498
                    0x0498                  _U1BDTP1bits = 0x498
                    0x049a                  U1FRML = 0x49a
                    0x049a                  _U1FRML = 0x49a
                    0x049a                  _U1FRMLbits = 0x49a
                    0x049c                  U1FRMH = 0x49c
                    0x049c                  _U1FRMH = 0x49c
                    0x049c                  _U1FRMHbits = 0x49c
                    0x049e                  U1TOK = 0x49e
                    0x049e                  _U1TOK = 0x49e
                    0x049e                  _U1TOKbits = 0x49e
                    0x04a0                  U1SOF = 0x4a0
                    0x04a0                  _U1SOF = 0x4a0
                    0x04a0                  _U1SOFbits = 0x4a0
                    0x04a6                  U1CNFG1 = 0x4a6
                    0x04a6                  _U1CNFG1 = 0x4a6
                    0x04a6                  _U1CNFG1bits = 0x4a6
                    0x04a8                  U1CNFG2 = 0x4a8
                    0x04a8                  _U1CNFG2 = 0x4a8
                    0x04a8                  _U1CNFG2bits = 0x4a8
                    0x04aa                  U1EP0 = 0x4aa
                    0x04aa                  _U1EP0 = 0x4aa
                    0x04aa                  _U1EP0bits = 0x4aa
                    0x04ac                  U1EP1 = 0x4ac
                    0x04ac                  _U1EP1 = 0x4ac
                    0x04ac                  _U1EP1bits = 0x4ac
                    0x04ae                  U1EP2 = 0x4ae
                    0x04ae                  _U1EP2 = 0x4ae
                    0x04ae                  _U1EP2bits = 0x4ae
                    0x04b0                  U1EP3 = 0x4b0
                    0x04b0                  _U1EP3 = 0x4b0
                    0x04b0                  _U1EP3bits = 0x4b0
                    0x04b2                  U1EP4 = 0x4b2
                    0x04b2                  _U1EP4 = 0x4b2
                    0x04b2                  _U1EP4bits = 0x4b2
                    0x04b4                  U1EP5 = 0x4b4
                    0x04b4                  _U1EP5 = 0x4b4
                    0x04b4                  _U1EP5bits = 0x4b4
                    0x04b6                  U1EP6 = 0x4b6
                    0x04b6                  _U1EP6 = 0x4b6
                    0x04b6                  _U1EP6bits = 0x4b6
                    0x04b8                  U1EP7 = 0x4b8
                    0x04b8                  _U1EP7 = 0x4b8
                    0x04b8                  _U1EP7bits = 0x4b8
                    0x04ba                  U1EP8 = 0x4ba
                    0x04ba                  _U1EP8 = 0x4ba
                    0x04ba                  _U1EP8bits = 0x4ba
                    0x04bc                  U1EP9 = 0x4bc
                    0x04bc                  _U1EP9 = 0x4bc
                    0x04bc                  _U1EP9bits = 0x4bc
                    0x04be                  U1EP10 = 0x4be
                    0x04be                  _U1EP10 = 0x4be
                    0x04be                  _U1EP10bits = 0x4be
                    0x04c0                  U1EP11 = 0x4c0
                    0x04c0                  _U1EP11 = 0x4c0
                    0x04c0                  _U1EP11bits = 0x4c0
                    0x04c2                  U1EP12 = 0x4c2
                    0x04c2                  _U1EP12 = 0x4c2
                    0x04c2                  _U1EP12bits = 0x4c2
                    0x04c4                  U1EP13 = 0x4c4
                    0x04c4                  _U1EP13 = 0x4c4
                    0x04c4                  _U1EP13bits = 0x4c4
                    0x04c6                  U1EP14 = 0x4c6
                    0x04c6                  _U1EP14 = 0x4c6
                    0x04c6                  _U1EP14bits = 0x4c6
                    0x04c8                  U1EP15 = 0x4c8
                    0x04c8                  _U1EP15 = 0x4c8
                    0x04c8                  _U1EP15bits = 0x4c8
                    0x04cc                  U1PWMRRS = 0x4cc
                    0x04cc                  _U1PWMRRS = 0x4cc
                    0x04cc                  _U1PWMRRSbits = 0x4cc
                    0x04ce                  U1PWMCON = 0x4ce
                    0x04ce                  _U1PWMCON = 0x4ce
                    0x04ce                  _U1PWMCONbits = 0x4ce
                    0x04de                  ANCFG = 0x4de
                    0x04de                  _ANCFG = 0x4de
                    0x04de                  _ANCFGbits = 0x4de
                    0x04e0                  ANSA = 0x4e0
                    0x04e0                  _ANSA = 0x4e0
                    0x04e0                  _ANSAbits = 0x4e0
                    0x04e2                  ANSB = 0x4e2
                    0x04e2                  _ANSB = 0x4e2
                    0x04e2                  _ANSBbits = 0x4e2
                    0x04e4                  ANSC = 0x4e4
                    0x04e4                  _ANSC = 0x4e4
                    0x04e4                  _ANSCbits = 0x4e4
                    0x04e6                  ANSD = 0x4e6
                    0x04e6                  _ANSD = 0x4e6
                    0x04e6                  _ANSDbits = 0x4e6
                    0x04e8                  ANSE = 0x4e8
                    0x04e8                  _ANSE = 0x4e8
                    0x04e8                  _ANSEbits = 0x4e8
                    0x04ea                  ANSF = 0x4ea
                    0x04ea                  _ANSF = 0x4ea
                    0x04ea                  _ANSFbits = 0x4ea
                    0x04ec                  ANSG = 0x4ec
                    0x04ec                  _ANSG = 0x4ec
                    0x04ec                  _ANSGbits = 0x4ec
                    0x0600                  PMCON1 = 0x600
                    0x0600                  _PMCON1 = 0x600
                    0x0600                  _PMCON1bits = 0x600
                    0x0602                  PMCON2 = 0x602
                    0x0602                  _PMCON2 = 0x602
                    0x0602                  _PMCON2bits = 0x602
                    0x0604                  PMCON3 = 0x604
                    0x0604                  _PMCON3 = 0x604
                    0x0604                  _PMCON3bits = 0x604
                    0x0606                  PMCON4 = 0x606
                    0x0606                  _PMCON4 = 0x606
                    0x0606                  _PMCON4bits = 0x606
                    0x0608                  PMCS1CF = 0x608
                    0x0608                  _PMCS1CF = 0x608
                    0x0608                  _PMCS1CFbits = 0x608
                    0x060a                  PMCS1BS = 0x60a
                    0x060a                  _PMCS1BS = 0x60a
                    0x060a                  _PMCS1BSbits = 0x60a
                    0x060c                  PMCS1MD = 0x60c
                    0x060c                  _PMCS1MD = 0x60c
                    0x060c                  _PMCS1MDbits = 0x60c
                    0x060e                  PMCS2CF = 0x60e
                    0x060e                  _PMCS2CF = 0x60e
                    0x060e                  _PMCS2CFbits = 0x60e
                    0x0610                  PMCS2BS = 0x610
                    0x0610                  _PMCS2BS = 0x610
                    0x0610                  _PMCS2BSbits = 0x610
                    0x0612                  PMCS2MD = 0x612
                    0x0612                  _PMCS2MD = 0x612
                    0x0612                  _PMCS2MDbits = 0x612
                    0x0614                  PMDOUT1 = 0x614
                    0x0614                  _PMDOUT1 = 0x614
                    0x0616                  PMDOUT2 = 0x616
                    0x0616                  _PMDOUT2 = 0x616
                    0x0618                  PMDIN1 = 0x618
                    0x0618                  _PMDIN1 = 0x618
                    0x061a                  PMDIN2 = 0x61a
                    0x061a                  _PMDIN2 = 0x61a
                    0x061c                  PMSTAT = 0x61c
                    0x061c                  _PMSTAT = 0x61c
                    0x061c                  _PMSTATbits = 0x61c
                    0x0620                  ALRMVAL = 0x620
                    0x0620                  _ALRMVAL = 0x620
                    0x0622                  ALCFGRPT = 0x622
                    0x0622                  _ALCFGRPT = 0x622
                    0x0622                  _ALCFGRPTbits = 0x622
                    0x0624                  RTCVAL = 0x624
                    0x0624                  _RTCVAL = 0x624
                    0x0626                  RCFGCAL = 0x626
                    0x0626                  _RCFGCAL = 0x626
                    0x0626                  _RCFGCALbits = 0x626
                    0x0630                  CMSTAT = 0x630
                    0x0630                  _CMSTAT = 0x630
                    0x0630                  _CMSTATbits = 0x630
                    0x0632                  CVRCON = 0x632
                    0x0632                  _CVRCON = 0x632
                    0x0632                  _CVRCONbits = 0x632
                    0x0634                  CM1CON = 0x634
                    0x0634                  _CM1CON = 0x634
                    0x0634                  _CM1CONbits = 0x634
                    0x0636                  CM2CON = 0x636
                    0x0636                  _CM2CON = 0x636
                    0x0636                  _CM2CONbits = 0x636
                    0x0638                  CM3CON = 0x638
                    0x0638                  _CM3CON = 0x638
                    0x0638                  _CM3CONbits = 0x638
                    0x0640                  CRCCON1 = 0x640
                    0x0640                  _CRCCON1 = 0x640
                    0x0640                  _CRCCON1bits = 0x640
                    0x0642                  CRCCON2 = 0x642
                    0x0642                  _CRCCON2 = 0x642
                    0x0642                  _CRCCON2bits = 0x642
                    0x0644                  CRCXORL = 0x644
                    0x0644                  _CRCXORL = 0x644
                    0x0644                  _CRCXORLbits = 0x644
                    0x0646                  CRCXORH = 0x646
                    0x0646                  _CRCXORH = 0x646
                    0x0646                  _CRCXORHbits = 0x646
                    0x0648                  CRCDAT = 0x648
                    0x0648                  _CRCDAT = 0x648
                    0x0648                  CRCDAT32 = 0x648
                    0x0648                  _CRCDAT32 = 0x648
                    0x0648                  CRCDAT8 = 0x648
                    0x0648                  _CRCDAT8 = 0x648
                    0x0648                  CRCDATL = 0x648
                    0x0648                  _CRCDATL = 0x648
                    0x064a                  CRCDATH = 0x64a
                    0x064a                  _CRCDATH = 0x64a
                    0x064c                  CRCWDATL = 0x64c
                    0x064c                  _CRCWDATL = 0x64c
                    0x064e                  CRCWDATH = 0x64e
                    0x064e                  _CRCWDATH = 0x64e
                    0x0680                  RPINR0 = 0x680
                    0x0680                  _RPINR0 = 0x680
                    0x0680                  _RPINR0bits = 0x680
                    0x0682                  RPINR1 = 0x682
                    0x0682                  _RPINR1 = 0x682
                    0x0682                  _RPINR1bits = 0x682
                    0x0684                  RPINR2 = 0x684
                    0x0684                  _RPINR2 = 0x684
                    0x0684                  _RPINR2bits = 0x684
                    0x0686                  RPINR3 = 0x686
                    0x0686                  _RPINR3 = 0x686
                    0x0686                  _RPINR3bits = 0x686
                    0x0688                  RPINR4 = 0x688
                    0x0688                  _RPINR4 = 0x688
                    0x0688                  _RPINR4bits = 0x688
                    0x068e                  RPINR7 = 0x68e
                    0x068e                  _RPINR7 = 0x68e
                    0x068e                  _RPINR7bits = 0x68e
                    0x0690                  RPINR8 = 0x690
                    0x0690                  _RPINR8 = 0x690
                    0x0690                  _RPINR8bits = 0x690
                    0x0692                  RPINR9 = 0x692
                    0x0692                  _RPINR9 = 0x692
                    0x0692                  _RPINR9bits = 0x692
                    0x0694                  RPINR10 = 0x694
                    0x0694                  _RPINR10 = 0x694
                    0x0694                  _RPINR10bits = 0x694
                    0x0696                  RPINR11 = 0x696
                    0x0696                  _RPINR11 = 0x696
                    0x0696                  _RPINR11bits = 0x696
                    0x069e                  RPINR15 = 0x69e
                    0x069e                  _RPINR15 = 0x69e
                    0x069e                  _RPINR15bits = 0x69e
                    0x06a2                  RPINR17 = 0x6a2
                    0x06a2                  _RPINR17 = 0x6a2
                    0x06a2                  _RPINR17bits = 0x6a2
                    0x06a4                  RPINR18 = 0x6a4
                    0x06a4                  _RPINR18 = 0x6a4
                    0x06a4                  _RPINR18bits = 0x6a4
                    0x06a6                  RPINR19 = 0x6a6
                    0x06a6                  _RPINR19 = 0x6a6
                    0x06a6                  _RPINR19bits = 0x6a6
                    0x06a8                  RPINR20 = 0x6a8
                    0x06a8                  _RPINR20 = 0x6a8
                    0x06a8                  _RPINR20bits = 0x6a8
                    0x06aa                  RPINR21 = 0x6aa
                    0x06aa                  _RPINR21 = 0x6aa
                    0x06aa                  _RPINR21bits = 0x6aa
                    0x06ac                  RPINR22 = 0x6ac
                    0x06ac                  _RPINR22 = 0x6ac
                    0x06ac                  _RPINR22bits = 0x6ac
                    0x06ae                  RPINR23 = 0x6ae
                    0x06ae                  _RPINR23 = 0x6ae
                    0x06ae                  _RPINR23bits = 0x6ae
                    0x06b6                  RPINR27 = 0x6b6
                    0x06b6                  _RPINR27 = 0x6b6
                    0x06b6                  _RPINR27bits = 0x6b6
                    0x06b8                  RPINR28 = 0x6b8
                    0x06b8                  _RPINR28 = 0x6b8
                    0x06b8                  _RPINR28bits = 0x6b8
                    0x06ba                  RPINR29 = 0x6ba
                    0x06ba                  _RPINR29 = 0x6ba
                    0x06ba                  _RPINR29bits = 0x6ba
                    0x06c0                  RPOR0 = 0x6c0
                    0x06c0                  _RPOR0 = 0x6c0
                    0x06c0                  _RPOR0bits = 0x6c0
                    0x06c2                  RPOR1 = 0x6c2
                    0x06c2                  _RPOR1 = 0x6c2
                    0x06c2                  _RPOR1bits = 0x6c2
                    0x06c4                  RPOR2 = 0x6c4
                    0x06c4                  _RPOR2 = 0x6c4
                    0x06c4                  _RPOR2bits = 0x6c4
                    0x06c6                  RPOR3 = 0x6c6
                    0x06c6                  _RPOR3 = 0x6c6
                    0x06c6                  _RPOR3bits = 0x6c6
                    0x06c8                  RPOR4 = 0x6c8
                    0x06c8                  _RPOR4 = 0x6c8
                    0x06c8                  _RPOR4bits = 0x6c8
                    0x06ca                  RPOR5 = 0x6ca
                    0x06ca                  _RPOR5 = 0x6ca
                    0x06ca                  _RPOR5bits = 0x6ca
                    0x06cc                  RPOR6 = 0x6cc
                    0x06cc                  _RPOR6 = 0x6cc
                    0x06cc                  _RPOR6bits = 0x6cc
                    0x06ce                  RPOR7 = 0x6ce
                    0x06ce                  _RPOR7 = 0x6ce
                    0x06ce                  _RPOR7bits = 0x6ce
                    0x06d0                  RPOR8 = 0x6d0
                    0x06d0                  _RPOR8 = 0x6d0
                    0x06d0                  _RPOR8bits = 0x6d0
                    0x06d2                  RPOR9 = 0x6d2
                    0x06d2                  _RPOR9 = 0x6d2
                    0x06d2                  _RPOR9bits = 0x6d2
                    0x06d4                  RPOR10 = 0x6d4
                    0x06d4                  _RPOR10 = 0x6d4
                    0x06d4                  _RPOR10bits = 0x6d4
                    0x06d6                  RPOR11 = 0x6d6
                    0x06d6                  _RPOR11 = 0x6d6
                    0x06d6                  _RPOR11bits = 0x6d6
                    0x06d8                  RPOR12 = 0x6d8
                    0x06d8                  _RPOR12 = 0x6d8
                    0x06d8                  _RPOR12bits = 0x6d8
                    0x06da                  RPOR13 = 0x6da
                    0x06da                  _RPOR13 = 0x6da
                    0x06da                  _RPOR13bits = 0x6da
                    0x06dc                  RPOR14 = 0x6dc
                    0x06dc                  _RPOR14 = 0x6dc
                    0x06dc                  _RPOR14bits = 0x6dc
                    0x06de                  RPOR15 = 0x6de
                    0x06de                  _RPOR15 = 0x6de
                    0x06de                  _RPOR15bits = 0x6de
                    0x0740                  RCON = 0x740
                    0x0740                  _RCON = 0x740
                    0x0740                  _RCONbits = 0x740
                    0x0742                  OSCCON = 0x742
                    0x0742                  _OSCCON = 0x742
                    0x0742                  _OSCCONbits = 0x742
                    0x0742                  OSCCONL = 0x742
                    0x0742                  _OSCCONL = 0x742
                    0x0743                  OSCCONH = 0x743
                    0x0743                  _OSCCONH = 0x743
                    0x0744                  CLKDIV = 0x744
                    0x0744                  _CLKDIV = 0x744
                    0x0744                  _CLKDIVbits = 0x744
                    0x0748                  OSCTUN = 0x748
                    0x0748                  _OSCTUN = 0x748
                    0x0748                  _OSCTUNbits = 0x748
                    0x074e                  REFOCON = 0x74e
                    0x074e                  _REFOCON = 0x74e
                    0x074e                  _REFOCONbits = 0x74e
                    0x0760                  NVMCON = 0x760
                    0x0760                  _NVMCON = 0x760
                    0x0760                  _NVMCONbits = 0x760
                    0x0766                  NVMKEY = 0x766
                    0x0766                  _NVMKEY = 0x766
                    0x0770                  PMD1 = 0x770
                    0x0770                  _PMD1 = 0x770
                    0x0770                  _PMD1bits = 0x770
                    0x0772                  PMD2 = 0x772
                    0x0772                  _PMD2 = 0x772
                    0x0772                  _PMD2bits = 0x772
                    0x0774                  PMD3 = 0x774
                    0x0774                  _PMD3 = 0x774
                    0x0774                  _PMD3bits = 0x774
                    0x0776                  PMD4 = 0x776
                    0x0776                  _PMD4 = 0x776
                    0x0776                  _PMD4bits = 0x776
                    0x0778                  PMD5 = 0x778
                    0x0778                  _PMD5 = 0x778
                    0x0778                  _PMD5bits = 0x778
                    0x077a                  PMD6 = 0x77a
                    0x077a                  _PMD6 = 0x77a
                    0x077a                  _PMD6bits = 0x77a
                    0x0144                  IC1 = 0x144
                    0x0144                  _IC1 = 0x144
                    0x014c                  IC2 = 0x14c
                    0x014c                  _IC2 = 0x14c
                    0x0154                  IC3 = 0x154
                    0x0154                  _IC3 = 0x154
                    0x015c                  IC4 = 0x15c
                    0x015c                  _IC4 = 0x15c
                    0x0164                  IC5 = 0x164
                    0x0164                  _IC5 = 0x164
                    0x016c                  IC6 = 0x16c
                    0x016c                  _IC6 = 0x16c
                    0x0174                  IC7 = 0x174
                    0x0174                  _IC7 = 0x174
                    0x017c                  IC8 = 0x17c
                    0x017c                  _IC8 = 0x17c
                    0x0194                  OC1 = 0x194
                    0x0194                  _OC1 = 0x194
                    0x019e                  OC2 = 0x19e
                    0x019e                  _OC2 = 0x19e
                    0x01a8                  OC3 = 0x1a8
                    0x01a8                  _OC3 = 0x1a8
                    0x01b2                  OC4 = 0x1b2
                    0x01b2                  _OC4 = 0x1b2
                    0x01bc                  OC5 = 0x1bc
                    0x01bc                  _OC5 = 0x1bc
                    0x01c6                  OC6 = 0x1c6
                    0x01c6                  _OC6 = 0x1c6
                    0x01d0                  OC7 = 0x1d0
                    0x01d0                  _OC7 = 0x1d0
                    0x01da                  OC8 = 0x1da
                    0x01da                  _OC8 = 0x1da
                    0x0240                  SPI1 = 0x240
                    0x0240                  _SPI1 = 0x240
                    0x0260                  SPI2 = 0x260
                    0x0260                  _SPI2 = 0x260
                    0x0220                  UART1 = 0x220
                    0x0220                  _UART1 = 0x220
                    0x0230                  UART2 = 0x230
                    0x0230                  _UART2 = 0x230
START GROUP
LOAD c:/program files (x86)/microchip/xc16/v1.41/bin/bin/../../lib\libpic30-elf.a
LOAD c:/program files (x86)/microchip/xc16/v1.41/bin/bin/../../lib\libm-elf.a
LOAD c:/program files (x86)/microchip/xc16/v1.41/bin/bin/../../lib\libc-elf.a
END GROUP
OUTPUT(dist/default/production/Split_v.8.53.180.X.production.elf elf32-pic30)
LOAD jump_table
LOAD default_isr
LOAD data_init

.debug_pubtypes
                  0x000240       0x1ad2
 .debug_pubtypes
                  0x000240        0x50b build/default/production/_ext/1472/DefinePeriferiche.o
 .debug_pubtypes
                  0x00074b         0x57 build/default/production/_ext/1472/Driver_Comunicazione.o
 .debug_pubtypes
                  0x0007a2         0x84 build/default/production/_ext/1472/I2C.o
 .debug_pubtypes
                  0x000826        0x52a build/default/production/_ext/1472/Main.o
 .debug_pubtypes
                  0x000d50        0x10f build/default/production/_ext/1472/ProtocolloComunicazione.o
 .debug_pubtypes
                  0x000e5f         0xb3 build/default/production/_ext/1472/Timer.o
 .debug_pubtypes
                  0x000f12        0x12c build/default/production/_ext/1472/usart.o
 .debug_pubtypes
                  0x00103e         0xa3 build/default/production/_ext/1472/ADC.o
 .debug_pubtypes
                  0x0010e1         0xa6 build/default/production/_ext/1472/EEPROM.o
 .debug_pubtypes
                  0x001187         0xf9 build/default/production/_ext/1472/Valvola_PassoPasso.o
 .debug_pubtypes
                  0x001280        0x13d build/default/production/_ext/1472/PWM.o
 .debug_pubtypes
                  0x0013bd        0x14f build/default/production/_ext/1472/Driver_ComunicazioneSec.o
 .debug_pubtypes
                  0x00150c         0x86 build/default/production/_ext/1472/ProtocolloComunicazioneSec.o
 .debug_pubtypes
                  0x001592         0xe5 build/default/production/_ext/1472/Core.o
 .debug_pubtypes
                  0x001677         0x44 build/default/production/_ext/1472/PID.o
 .debug_pubtypes
                  0x0016bb         0x45 build/default/production/_ext/1472/LCD_ScreenInfo.o
 .debug_pubtypes
                  0x001700         0x12 build/default/production/_ext/1472/i2c_LCD_Driver.o
 .debug_pubtypes
                  0x001712         0x7a build/default/production/_ext/1472/soft_i2c.o
 .debug_pubtypes
                  0x00178c         0xe4 build/default/production/_ext/1472/ServiceComunication.o
 .debug_pubtypes
                  0x001870        0x145 build/default/production/_ext/1472/Driver_ModBusSec.o
 .debug_pubtypes
                  0x0019b5         0xe8 build/default/production/_ext/1472/ProtocolloModBusSec.o
 .debug_pubtypes
                  0x001a9d        0x1d9 build/default/production/_ext/1472/Interrupt.o
 .debug_pubtypes
                  0x001c76         0x5c build/default/production/_ext/1472/Driver_ModBus.o
 .debug_pubtypes
                  0x001cd2         0x40 build/default/production/_ext/1472/ProtocolloModBus.o

__c30_signature
                  0x001d12        0x1e0
 __c30_signature
                  0x001d12          0x6 build/default/production/_ext/1472/DefinePeriferiche.o
 __c30_signature
                  0x001d18          0x6 build/default/production/_ext/1472/Driver_Comunicazione.o
 __c30_signature
                  0x001d1e          0x6 build/default/production/_ext/1472/I2C.o
 __c30_signature
                  0x001d24          0x6 build/default/production/_ext/1472/Main.o
 __c30_signature
                  0x001d2a          0x6 build/default/production/_ext/1472/ProtocolloComunicazione.o
 __c30_signature
                  0x001d30          0x6 build/default/production/_ext/1472/Timer.o
 __c30_signature
                  0x001d36          0x6 build/default/production/_ext/1472/usart.o
 __c30_signature
                  0x001d3c          0x6 build/default/production/_ext/1472/ADC.o
 __c30_signature
                  0x001d42          0x6 build/default/production/_ext/1472/EEPROM.o
 __c30_signature
                  0x001d48          0x6 build/default/production/_ext/1472/Valvola_PassoPasso.o
 __c30_signature
                  0x001d4e          0x6 build/default/production/_ext/1472/PWM.o
 __c30_signature
                  0x001d54          0x6 build/default/production/_ext/1472/Driver_ComunicazioneSec.o
 __c30_signature
                  0x001d5a          0x6 build/default/production/_ext/1472/ProtocolloComunicazioneSec.o
 __c30_signature
                  0x001d60          0x6 build/default/production/_ext/1472/Core.o
 __c30_signature
                  0x001d66          0x6 build/default/production/_ext/1472/PID.o
 __c30_signature
                  0x001d6c          0x6 build/default/production/_ext/1472/LCD_ScreenInfo.o
 __c30_signature
                  0x001d72          0x6 build/default/production/_ext/1472/i2c_LCD_Driver.o
 __c30_signature
                  0x001d78          0x6 build/default/production/_ext/1472/soft_i2c.o
 __c30_signature
                  0x001d7e          0x6 build/default/production/_ext/1472/ServiceComunication.o
 __c30_signature
                  0x001d84          0x6 build/default/production/_ext/1472/Driver_ModBusSec.o
 __c30_signature
                  0x001d8a          0x6 build/default/production/_ext/1472/ProtocolloModBusSec.o
 __c30_signature
                  0x001d90          0x6 build/default/production/_ext/1472/Interrupt.o
 __c30_signature
                  0x001d96          0x6 build/default/production/_ext/1472/Driver_ModBus.o
 __c30_signature
                  0x001d9c          0x6 build/default/production/_ext/1472/ProtocolloModBus.o
 __c30_signature
                  0x001da2          0x6 c:/program files (x86)/microchip/xc16/v1.41/bin/bin/../../lib\libpic30-elf.a(crt0_extended24.o)
 __c30_signature
                  0x001da8          0x6 c:/program files (x86)/microchip/xc16/v1.41/bin/bin/../../lib\libpic30-elf.a(data_init_24.o)
 __c30_signature
                  0x001dae          0x6 c:/program files (x86)/microchip/xc16/v1.41/bin/bin/../../lib\libpic30-elf.a(delay32da.eo)
 __c30_signature
                  0x001db4          0x6 c:/program files (x86)/microchip/xc16/v1.41/bin/bin/../../lib\libm-elf.a(addsf3.daeo)
 __c30_signature
                  0x001dba          0x6 c:/program files (x86)/microchip/xc16/v1.41/bin/bin/../../lib\libm-elf.a(ceilf.daeo)
 __c30_signature
                  0x001dc0          0x6 c:/program files (x86)/microchip/xc16/v1.41/bin/bin/../../lib\libm-elf.a(divsf3.daeo)
 __c30_signature
                  0x001dc6          0x6 c:/program files (x86)/microchip/xc16/v1.41/bin/bin/../../lib\libm-elf.a(divsi3.daeo)
 __c30_signature
                  0x001dcc          0x6 c:/program files (x86)/microchip/xc16/v1.41/bin/bin/../../lib\libm-elf.a(fchop.daeo)
 __c30_signature
                  0x001dd2          0x6 c:/program files (x86)/microchip/xc16/v1.41/bin/bin/../../lib\libm-elf.a(feqltle.daeo)
 __c30_signature
                  0x001dd8          0x6 c:/program files (x86)/microchip/xc16/v1.41/bin/bin/../../lib\libm-elf.a(fgtge.daeo)
 __c30_signature
                  0x001dde          0x6 c:/program files (x86)/microchip/xc16/v1.41/bin/bin/../../lib\libm-elf.a(fixsfsi.daeo)
 __c30_signature
                  0x001de4          0x6 c:/program files (x86)/microchip/xc16/v1.41/bin/bin/../../lib\libm-elf.a(fixunssfsi.daeo)
 __c30_signature
                  0x001dea          0x6 c:/program files (x86)/microchip/xc16/v1.41/bin/bin/../../lib\libm-elf.a(floatsisf.daeo)
 __c30_signature
                  0x001df0          0x6 c:/program files (x86)/microchip/xc16/v1.41/bin/bin/../../lib\libm-elf.a(floatundisf.daeo)
 __c30_signature
                  0x001df6          0x6 c:/program files (x86)/microchip/xc16/v1.41/bin/bin/../../lib\libm-elf.a(floatunsisf.daeo)
 __c30_signature
                  0x001dfc          0x6 c:/program files (x86)/microchip/xc16/v1.41/bin/bin/../../lib\libm-elf.a(floorf.daeo)
 __c30_signature
                  0x001e02          0x6 c:/program files (x86)/microchip/xc16/v1.41/bin/bin/../../lib\libm-elf.a(fpack.daeo)
 __c30_signature
                  0x001e08          0x6 c:/program files (x86)/microchip/xc16/v1.41/bin/bin/../../lib\libm-elf.a(funpack.daeo)
 __c30_signature
                  0x001e0e          0x6 c:/program files (x86)/microchip/xc16/v1.41/bin/bin/../../lib\libm-elf.a(funpack2.daeo)
 __c30_signature
                  0x001e14          0x6 c:/program files (x86)/microchip/xc16/v1.41/bin/bin/../../lib\libm-elf.a(futil.daeo)
 __c30_signature
                  0x001e1a          0x6 c:/program files (x86)/microchip/xc16/v1.41/bin/bin/../../lib\libm-elf.a(logf.daeo)
 __c30_signature
                  0x001e20          0x6 c:/program files (x86)/microchip/xc16/v1.41/bin/bin/../../lib\libm-elf.a(mulsf3.daeo)
 __c30_signature
                  0x001e26          0x6 c:/program files (x86)/microchip/xc16/v1.41/bin/bin/../../lib\libm-elf.a(udivsi3.daeo)
 __c30_signature
                  0x001e2c          0x6 c:/program files (x86)/microchip/xc16/v1.41/bin/bin/../../lib\libm-elf.a(_frexpf.daeo)
 __c30_signature
                  0x001e32          0x6 c:/program files (x86)/microchip/xc16/v1.41/bin/bin/../../lib\libm-elf.a(errno.daeo)
 __c30_signature
                  0x001e38          0x6 c:/program files (x86)/microchip/xc16/v1.41/bin/bin/../../lib\libm-elf.a(fcompare.daeo)
 __c30_signature
                  0x001e3e          0x6 c:/program files (x86)/microchip/xc16/v1.41/bin/bin/../../lib\libm-elf.a(floatdisf.daeo)
 __c30_signature
                  0x001e44          0x6 c:/program files (x86)/microchip/xc16/v1.41/bin/bin/../../lib\libc-elf.a(sprintf_cdfFnopuxX.DAeo)
 __c30_signature
                  0x001e4a          0x6 c:/program files (x86)/microchip/xc16/v1.41/bin/bin/../../lib\libc-elf.a(doprnt_cdfFnopuxX.DAeo)
 __c30_signature
                  0x001e50          0x6 c:/program files (x86)/microchip/xc16/v1.41/bin/bin/../../lib\libc-elf.a(fputc.daeo)
 __c30_signature
                  0x001e56          0x6 c:/program files (x86)/microchip/xc16/v1.41/bin/bin/../../lib\libc-elf.a(memcpy.daeo)
 __c30_signature
                  0x001e5c          0x6 c:/program files (x86)/microchip/xc16/v1.41/bin/bin/../../lib\libc-elf.a(_iob.daeo)
 __c30_signature
                  0x001e62          0x6 c:/program files (x86)/microchip/xc16/v1.41/bin/bin/../../lib\libc-elf.a(powers.dDAeo)
 __c30_signature
                  0x001e68          0x6 c:/program files (x86)/microchip/xc16/v1.41/bin/bin/../../lib\libc-elf.a(flsbuf.daeo)
 __c30_signature
                  0x001e6e          0x6 c:/program files (x86)/microchip/xc16/v1.41/bin/bin/../../lib\libpic30-elf.a(writeda.eo)
 __c30_signature
                  0x001e74          0x6 c:/program files (x86)/microchip/xc16/v1.41/bin/bin/../../lib\libpic30-elf.a(c30_uartda.eo)
 __c30_signature
                  0x001e7a          0x6 c:/program files (x86)/microchip/xc16/v1.41/bin/bin/../../lib\libm-elf.a(adddf3.daeo)
 __c30_signature
                  0x001e80          0x6 c:/program files (x86)/microchip/xc16/v1.41/bin/bin/../../lib\libm-elf.a(deqltle.daeo)
 __c30_signature
                  0x001e86          0x6 c:/program files (x86)/microchip/xc16/v1.41/bin/bin/../../lib\libm-elf.a(dgtge.daeo)
 __c30_signature
                  0x001e8c          0x6 c:/program files (x86)/microchip/xc16/v1.41/bin/bin/../../lib\libm-elf.a(divdf3.daeo)
 __c30_signature
                  0x001e92          0x6 c:/program files (x86)/microchip/xc16/v1.41/bin/bin/../../lib\libm-elf.a(dne.daeo)
 __c30_signature
                  0x001e98          0x6 c:/program files (x86)/microchip/xc16/v1.41/bin/bin/../../lib\libm-elf.a(dpack.daeo)
 __c30_signature
                  0x001e9e          0x6 c:/program files (x86)/microchip/xc16/v1.41/bin/bin/../../lib\libm-elf.a(dunpack2.daeo)
 __c30_signature
                  0x001ea4          0x6 c:/program files (x86)/microchip/xc16/v1.41/bin/bin/../../lib\libm-elf.a(extendsfdf.daeo)
 __c30_signature
                  0x001eaa          0x6 c:/program files (x86)/microchip/xc16/v1.41/bin/bin/../../lib\libm-elf.a(fixunsdfdi.daeo)
 __c30_signature
                  0x001eb0          0x6 c:/program files (x86)/microchip/xc16/v1.41/bin/bin/../../lib\libm-elf.a(floatunsidf.daeo)
 __c30_signature
                  0x001eb6          0x6 c:/program files (x86)/microchip/xc16/v1.41/bin/bin/../../lib\libm-elf.a(frexp.daeo)
 __c30_signature
                  0x001ebc          0x6 c:/program files (x86)/microchip/xc16/v1.41/bin/bin/../../lib\libm-elf.a(muldf3.daeo)
 __c30_signature
                  0x001ec2          0x6 c:/program files (x86)/microchip/xc16/v1.41/bin/bin/../../lib\libm-elf.a(subdf3.daeo)
 __c30_signature
                  0x001ec8          0x6 c:/program files (x86)/microchip/xc16/v1.41/bin/bin/../../lib\libm-elf.a(umodsi3.daeo)
 __c30_signature
                  0x001ece          0x6 c:/program files (x86)/microchip/xc16/v1.41/bin/bin/../../lib\libm-elf.a(mulsi3.daeo)
 __c30_signature
                  0x001ed4          0x6 c:/program files (x86)/microchip/xc16/v1.41/bin/bin/../../lib\libm-elf.a(dcompare.daeo)
 __c30_signature
                  0x001eda          0x6 c:/program files (x86)/microchip/xc16/v1.41/bin/bin/../../lib\libm-elf.a(dpropagateNaN.daeo)
 __c30_signature
                  0x001ee0          0x6 c:/program files (x86)/microchip/xc16/v1.41/bin/bin/../../lib\libm-elf.a(dtype.daeo)
 __c30_signature
                  0x001ee6          0x6 c:/program files (x86)/microchip/xc16/v1.41/bin/bin/../../lib\libm-elf.a(dunpack.daeo)
 __c30_signature
                  0x001eec          0x6 c:/program files (x86)/microchip/xc16/v1.41/bin/bin/../../lib\libm-elf.a(floatundidf.daeo)

.nbss               0x0800        0x14c
 .nbss              0x0800         0xda build/default/production/_ext/1472/Main.o
                    0x0800                  _iPckRx
                    0x0802                  _WaitingReplaySec
                    0x0804                  _iPckRxSec
                    0x0805                  _iPckModRxSec
                    0x0806                  _My_Address
                    0x0807                  _RetryCntSec
                    0x0808                  _DataIndexSec
                    0x080a                  _WriteE2Status
                    0x080c                  _CRC_Flash
                    0x080e                  _SN1
                    0x080f                  _SN2
                    0x0810                  _SN3
                    0x0811                  _SN4
                    0x0812                  _GiornoFabbricazione
                    0x0814                  _MeseFabbricazione
                    0x0816                  _AnnoFabbricazione
                    0x0818                  _PWM_Counter
                    0x081a                  _SogliaCorrenteVentil
                    0x081c                  _TachoTMR
                    0x081e                  _TimerTacho
                    0x0820                  _FlagTachoUpdateRequest
                    0x0822                  _StepRefreshTime
                    0x0824                  _ValvolaMaxStepNum
                    0x0826                  _CyclTestEEV
                    0x0828                  _EnableMySecBus
                    0x082a                  _DividerValvola
                    0x082c                  _FilterSuperHeat
                    0x0834                  _FilterSuperHeatRiscaldamento
                    0x083c                  _FilterBig_Request
                    0x0844                  _FilterExpValve
                    0x084c                  _FilterFan_MaxSpeed
                    0x0854                  _FilterFan_Tacho
                    0x085c                  _FilterEvap_Press
                    0x0864                  _FilterFan_Power
                    0x086c                  _FilterFan_Current
                    0x0874                  _FilterFan_FastCurrent
                    0x087c                  _FilterFan_M3h
                    0x0884                  _FilterAirPowerOutput
                    0x088c                  _FilterAirPowerBTU
                    0x0894                  _iPckModRx
                    0x0896                  _RetryCnt
                    0x0897                  _i
                    0x0898                  _DataIndex
                    0x089a                  _Led_Divider
                    0x089c                  _CntResumeTouch
                    0x089d                  _CntResumeNetB
                    0x089e                  _CntResumeSyxtS
                    0x089f                  _CntResumeSplit_Sec
                    0x08a0                  _ComunicationLost
                    0x08a2                  _CurUsedProtocolId
                    0x08a3                  _ScanTouchCounter
                    0x08a4                  _ScanNetBCounter
                    0x08a5                  _ScanSyxtSCounter
                    0x08a6                  _TimeOutInterCharComErr
                    0x08a8                  _ModCntComErr
                    0x08aa                  _ModTimeOutComErr
                    0x08ac                  _ModTimeOutInterCharComErr
                    0x08ae                  _ModCRC_ComErr
                    0x08b0                  _ModCntComErrSec
                    0x08b2                  _ModTimeOutComErrSec
                    0x08b4                  _ModTimeOutInterCharComErrSec
                    0x08b6                  _ModCRC_ComErrSec
                    0x08b8                  _CntComErrSec
                    0x08ba                  _TimeOutComErrSec
                    0x08bc                  _TimeOutInterCharComErrSec
                    0x08be                  _CRC_ComErrSec
                    0x08c0                  _ReplyResult
                    0x08c2                  _ForceU1MyBUS
                    0x08c4                  _SchedSearchDevice
                    0x08c6                  _nCycle
                    0x08c8                  _SaveNumber
 .nbss              0x08da         0x72 build/default/production/_ext/1472/ProtocolloModBusSec.o
                    0x08da                  _DisableModComErrorCounter

.ndata              0x094c         0x3c
 .ndata             0x094c         0x3c build/default/production/_ext/1472/ADC.o
                    0x094c                  _R1
                    0x0950                  _Vref
                    0x0954                  _VoMAX
                    0x0958                  _ADres
                    0x095c                  _Gain1
                    0x0960                  _Gain2
                    0x0964                  _Offset1
                    0x0968                  _Offset2
                    0x096c                  _A1
                    0x0970                  _B1
                    0x0974                  _C1
                    0x0978                  _A2
                    0x097c                  _B2
                    0x0980                  _C2
                    0x0984                  _K

.nbss               0x0988         0x88
 .nbss              0x0988         0x36 build/default/production/_ext/1472/ADC.o
                    0x0988                  _Gain
                    0x098c                  _Offset
                    0x0990                  _Vout
                    0x0994                  _Vptc
                    0x0998                  _Rth
                    0x099c                  _logR
                    0x09a0                  _logR3
                    0x09a4                  _kelvin
                    0x09a8                  _celsius
                    0x09ac                  _dComp
                    0x09b0                  _A
                    0x09b4                  _B
                    0x09b8                  _C
 .nbss              0x09be         0x1c build/default/production/_ext/1472/ServiceComunication.o
 .nbss              0x09da         0x1a build/default/production/_ext/1472/Core.o
 .nbss              0x09f4         0x12 build/default/production/_ext/1472/Interrupt.o
                    0x09f4                  _SecDivider
                    0x09f6                  _mSecDivider
 .nbss              0x0a06          0xa build/default/production/_ext/1472/PWM.o

.ndata              0x0a10          0x4
 .ndata             0x0a10          0x4 build/default/production/_ext/1472/Main.o
                    0x0a10                  _RTC_Flag
                    0x0a12                  _ScanBoardCounter_Sec

.nbss               0x0a14          0x8
 .nbss              0x0a14          0x4 build/default/production/_ext/1472/ProtocolloComunicazioneSec.o
 .nbss              0x0a18          0x4 build/default/production/_ext/1472/LCD_ScreenInfo.o

.ndata              0x0a1c          0xa
 .ndata             0x0a1c          0x4 build/default/production/_ext/1472/LCD_ScreenInfo.o
 .ndata             0x0a20          0x4 build/default/production/_ext/1472/ServiceComunication.o
 .ndata             0x0a24          0x2 build/default/production/_ext/1472/ProtocolloComunicazione.o

.nbss               0x0a26          0x2
 .nbss              0x0a26          0x2 build/default/production/_ext/1472/Valvola_PassoPasso.o

.ndata              0x0a28          0x6
 .ndata             0x0a28          0x2 build/default/production/_ext/1472/Core.o
 .ndata             0x0a2a          0x2 build/default/production/_ext/1472/ProtocolloModBusSec.o
 .ndata             0x0a2c          0x2 build/default/production/_ext/1472/Interrupt.o

.nbss               0x0a2e          0x2
 .nbss              0x0a2e          0x2 c:/program files (x86)/microchip/xc16/v1.41/bin/bin/../../lib\libm-elf.a(errno.daeo)
                    0x0a2e                  _errno

.bss                0x0a30       0x6cfa
 .bss               0x0a30       0x5cfa build/default/production/_ext/1472/Main.o
                    0x0a30                  _Adc_Temp
                    0x0a46                  _Sum_Adc_Temp
                    0x0a72                  _N_Campioni
                    0x0a7e                  _TimeOutRx
                    0x0a84                  _BufferRx
                    0x0a90                  _BufferTx
                    0x0a9c                  _LastRx
                    0x0aa8                  _TimeOutRxSec
                    0x0aae                  _BufferRxSec
                    0x0aba                  _BufferTxSec
                    0x0ac6                  _LastRxSec
                    0x0ad2                  _MyBUS_BufferTxSec
                    0x0ae4                  _TimeOutModRxSec
                    0x0aea                  _Mod_BufferRxSec
                    0x0bf0                  _Mod_BufferTxSec
                    0x0cf6                  _Mod_LastRxSec
                    0x0dfc                  _TimeOutPktRxSec
                    0x0e02                  _TimeOutModPktRxSec
                    0x0e08                  _Inverter
                    0x0e32                  _Syncronize
                    0x0eb0                  _PWMValue
                    0x0ec2                  _RefreshVentil
                    0x0ec8                  _RefreshFineVentil
                    0x0ece                  _TimerCheckBatteryDefrost
                    0x0ed4                  _TimerValvola
                    0x0eda                  _TimerDisableValve
                    0x0ee0                  _LCD_ScreeScheduler
                    0x0ee6                  _PausaCompressore
                    0x0eec                  _TimerCompressore
                    0x0ef2                  _TimerDefostCycle
                    0x0ef8                  _TimerRecoveryGasCycle
                    0x0efe                  _TimerRecoveryGasInterval
                    0x0f04                  _TimerRecoveryGasFilter
                    0x0f0a                  _TimerTestEEV
                    0x0f10                  _TimerExecPID
                    0x0f16                  _TimerRestartValve
                    0x0f1c                  _EngineBox
                    0x10da                  _Reinit
                    0x10f6                  _Me
                    0x12be                  _Touch
                    0x1390                  _NetB
                    0x13a2                  _SyxtS
                    0x13b6                  _Room
                    0x1928                  _TimerExpValvola
                    0x192e                  _TimerResyncValvola
                    0x1934                  _TimerExpValv_Err
                    0x193a                  _DiagnosticSplit
                    0x19ce                  _DiagnosticInverter
                    0x19ec                  _TimerSpeedChangeCoreOff
                    0x19f2                  _TimerFanVelSwitch
                    0x19f8                  _TimerCheckFanTacho
                    0x19fe                  _TimerDefrostingCycleWork
                    0x1a08                  _TimerDefrostingCycleStop
                    0x1a0e                  _TimerDefrostingCycleCheck
                    0x1a14                  _TimerOnValveFrozen
                    0x1a1a                  _TimerTemperatureFault
                    0x1a20                  _TimerCorrectSuperHeatAirOut
                    0x1a26                  _TimerMaxTimeCmdAddress
                    0x1a2c                  _TimerFloodFanCoil
                    0x1a32                  _TimerGasLeaks
                    0x1a38                  _TimerTemperatureProbeError
                    0x1a3e                  _TimerErrFlow
                    0x1a44                  _TimerSelectPumpWork
                    0x1a4e                  _TimerOutWaterStop
                    0x1a54                  _TimerHeaterFresh
                    0x1a5a                  _TimerDampersAlarm
                    0x1a60                  _ValvePID
                    0x1aa2                  _ValvePID2
                    0x1ae4                  _TimeOutModRx
                    0x1aea                  _Mod_BufferRx
                    0x1bf0                  _Mod_BufferTx
                    0x1cf6                  _Mod_LastRx
                    0x1dfc                  _TimeOutModPktRx
                    0x1e02                  _BridgeBufferA
                    0x3602                  _BridgeBufferB
                    0x4e02                  _Mod_PreBufferTx
                    0x5602                  _BusError
                    0x561a                  _ServiceBusBufferTxU3
                    0x5a52                  _ServiceBusBufferTxU4
                    0x5e8a                  _ServiceBusBufferRxU3
                    0x62c2                  _ServiceBusBufferRxU4
                    0x66fa                  _TmrLastRequest
                    0x6700                  _TimerStartUp
                    0x6706                  _RefreshNetBRead
                    0x670c                  _TimerSystemCycle
                    0x6712                  _TimerComunicationError
                    0x6718                  _TimerBusMergeMode
                    0x671e                  _TimerToggleComunication_Sec
                    0x6724                  _TimerCheckProbe
 .bss               0x672a       0x1000 build/default/production/_ext/1472/EEPROM.o
                    0x672a                  _VirtualE2PageBuff

.data               0x772a        0x160
 .data              0x772a        0x160 c:/program files (x86)/microchip/xc16/v1.41/bin/bin/../../lib\libc-elf.a(powers.dDAeo)
                    0x772a                  __powers_
                    0x77da                  __npowers_

.bss                0x788a        0x140
 .bss               0x788a        0x140 build/default/production/_ext/1472/ProtocolloModBusSec.o

.data               0x79ca         0xcc
 .data              0x79ca         0x54 build/default/production/_ext/1472/LCD_ScreenInfo.o
                    0x79ca                  _txt1
                    0x79df                  _txt2
                    0x79f4                  _txt3
                    0x7a09                  _txt4
 .data              0x7a1e         0x52 c:/program files (x86)/microchip/xc16/v1.41/bin/bin/../../lib\libc-elf.a(doprnt_cdfFnopuxX.DAeo)
 .data              0x7a70         0x26 c:/program files (x86)/microchip/xc16/v1.41/bin/bin/../../lib\libc-elf.a(_iob.daeo)
                    0x7a70                  __iob
                    0x7a94                  __Files

.bss                0x7a96         0x20
 .bss               0x7a96         0x20 build/default/production/_ext/1472/LCD_ScreenInfo.o
                    0x7a96                  _LCDstr

.data               0x7ab6          0xc
 .data              0x7ab6          0xc build/default/production/_ext/1472/Main.o
                    0x7ab6                  _Campioni_Acquisizione

.bss                0x7ac2          0x6
 .bss               0x7ac2          0x6 c:/program files (x86)/microchip/xc16/v1.41/bin/bin/../../lib\libc-elf.a(_iob.daeo)
                    0x7ac2                  __outdone
                    0x7ac3                  __sibuf
                    0x7ac5                  __sobuf

.data               0x7ac8          0x2
 .data              0x7ac8          0x2 c:/program files (x86)/microchip/xc16/v1.41/bin/bin/../../lib\libpic30-elf.a(c30_uartda.eo)
                    0x7ac8                  ___C30_UART

.config_JTAGEN    0x02abfe          0x2
 .config_JTAGEN
                  0x02abfe          0x2 build/default/production/_ext/1472/Main.o

.config_IESO      0x02abfc          0x2
 .config_IESO     0x02abfc          0x2 build/default/production/_ext/1472/Main.o

.config_WPEND     0x02abfa          0x2
 .config_WPEND    0x02abfa          0x2 build/default/production/_ext/1472/Main.o

.ivt._ADC1Interrupt
                  0x00002e          0x2
 .ivt._ADC1Interrupt
                  0x00002e          0x2 build/default/production/_ext/1472/Interrupt.o

.ivt._U2TXInterrupt
                  0x000052          0x2
 .ivt._U2TXInterrupt
                  0x000052          0x2 build/default/production/_ext/1472/Interrupt.o

.ivt._U1RXInterrupt
                  0x00002a          0x2
 .ivt._U1RXInterrupt
                  0x00002a          0x2 build/default/production/_ext/1472/Interrupt.o

.ivt._U2RXInterrupt
                  0x000050          0x2
 .ivt._U2RXInterrupt
                  0x000050          0x2 build/default/production/_ext/1472/Interrupt.o

.ivt._U1ErrInterrupt
                  0x000096          0x2
 .ivt._U1ErrInterrupt
                  0x000096          0x2 build/default/production/_ext/1472/Interrupt.o

.ivt._U2ErrInterrupt
                  0x000098          0x2
 .ivt._U2ErrInterrupt
                  0x000098          0x2 build/default/production/_ext/1472/Interrupt.o

.ivt._U3RXInterrupt
                  0x0000b8          0x2
 .ivt._U3RXInterrupt
                  0x0000b8          0x2 build/default/production/_ext/1472/Interrupt.o

.ivt._U3TXInterrupt
                  0x0000ba          0x2
 .ivt._U3TXInterrupt
                  0x0000ba          0x2 build/default/production/_ext/1472/Interrupt.o

.ivt._U3ErrInterrupt
                  0x0000b6          0x2
 .ivt._U3ErrInterrupt
                  0x0000b6          0x2 build/default/production/_ext/1472/Interrupt.o

.ivt._T1Interrupt
                  0x00001a          0x2
 .ivt._T1Interrupt
                  0x00001a          0x2 build/default/production/_ext/1472/Interrupt.o

.const              0x9f84        0x77c load address 0x001f84  
 .const             0x9f84        0x594 build/default/production/_ext/1472/ServiceComunication.o
 .const             0xa518        0x1c2 build/default/production/_ext/1472/LCD_ScreenInfo.o
 .const             0xa6da         0x26 build/default/production/_ext/1472/Core.o

.text             0x002700      0x15e22
 .text            0x002700       0x60da build/default/production/_ext/1472/ProtocolloModBusSec.o
                  0x002700                  _WaitModRxSec
                  0x002788                  _Send_WaitModRxSec
                  0x0027fa                  _Send_WriteModRegSec
                  0x00289c                  _ReadModRegSec
                  0x002914                  _ReadModListRegSec
                  0x00298e                  _WriteModRegSec
                  0x0029f2                  _WriteModListRegSec
                  0x002a56                  _ReadModRegSecInv
                  0x002ac2                  _WriteModRegSecInv
                  0x002af4                  _ReadModRegSecZiehgAbbModbusFan
                  0x002b38                  _WriteModRegSecZiehgAbbModbusFan
                  0x002b6a                  _ReadModInputSecZiehgAbbModbusFan
                  0x002bae                  _ReadModRegSecEBMModbusFan
                  0x002bf2                  _WriteModRegSecEBMModbusFan
                  0x002c24                  _ReadModInputSecEBMModbusFan
                  0x002c68                  _ReadModRegSecNetB
                  0x002cdc                  _ReadModListRegSecNetB
                  0x002d54                  _WriteModRegSecNetB
                  0x002db2                  _WriteCoilModRegSecNetB
                  0x002e10                  _ReadCoilModRegSecNetB
                  0x002e84                  _WriteModListRegSecNetB
                  0x002ee2                  _ExtracRegSec
                  0x002f16                  _InsertRegSec
                  0x002f42                  _InitInverterFan
                  0x002f84                  _RefreshInverterFan
                  0x0030ba                  _RefreshZiehgAbbModbusFan
                  0x003128                  _RefreshEBMModbusFan
                  0x0031de                  _Search_Touch
                  0x003308                  _CheckHotPlugTouch
                  0x0034aa                  _Resume_TouchOffLine
                  0x003694                  _RefreshTouchInPut
                  0x003fd8                  _RefreshAllTouchInPut
                  0x00404a                  _RefreshTouchOutPut
                  0x00529e                  _RefreshAllTouchOutPut
                  0x0052d6                  _InitTouch
                  0x00596a                  _CheckIfTouchIsReady
                  0x0059dc                  _Search_NetB
                  0x005ae4                  _Resume_NetBOffLine
                  0x005cd6                  _CheckHotPlugNetB
                  0x005e6e                  _RefreshNetBInPut
                  0x005f36                  _RefreshAllNetBInPut
                  0x005f5c                  _RefreshNetBOutPut
                  0x005f64                  _RefreshAllNetBOutPut
                  0x006000                  _InitNetB
                  0x00605a                  _Reinit_DataSplitToTouch
                  0x0061b4                  _Reinit_DataSplitToNetB
                  0x0062da                  _SyncronizeDataOld
                  0x006366                  _SyncronizeDataNew
                  0x006564                  _SyncronizeDataBridge
                  0x0065ea                  _SyncronizeDataNew_NetB
                  0x00676c                  _SyncronizeDataSetP_NetB
                  0x0069da                  _SyncronizeDataOnOff_NetB
                  0x006c66                  _SyncronizeDataVel_NetB
                  0x006ed0                  _ApplyVel_NetB
                  0x006efc                  _Reinit_DataSplitToSyxtS
                  0x007060                  _ReadModRegSecSyxtS
                  0x0070d4                  _ReadModInputSecSyxtS
                  0x007148                  _ReadModListRegSecSyxtS
                  0x0071c0                  _WriteModRegSecSyxtS
                  0x00721e                  _WriteCoilModRegSecSyxtS
                  0x00727c                  _WriteModListRegSecSyxtS
                  0x0072da                  _ReadCoilModRegSecSyxtS
                  0x00734e                  _ReadInputStModRegSecSyxtS
                  0x0073c2                  _RefreshAllSyxtSInPut
                  0x0073e8                  _RefreshSyxtSInPut
                  0x00757a                  _SyxtS2Touch
                  0x0075b4                  _Search_SyxtS
                  0x00775e                  _InitSyxtS
                  0x00793a                  _RefreshAllSyxtSOutPut
                  0x0079f6                  _Resume_SyxtSOffLine
                  0x007bee                  _CheckHotPlugSyxtS
                  0x007d8a                  _SyncronizeDataSetP_SyxtS
                  0x007fe2                  _SyncronizeDataOnOff_SyxtS
                  0x008224                  _SyncronizeDataVel_SyxtS
                  0x008440                  _SyncronizeDataHeater_SyxtS
                  0x008684                  _round
                  0x0086d2                  _SearchModbusDeviceIndex
                  0x0087ca                  _RecheckDataReadTouch
 .text            0x0087da       0x35e2 build/default/production/_ext/1472/Core.o
                  0x0087da                  _NetB2Touch
                  0x008842                  _FunctionMode
                  0x009272                  _PressureGas
                  0x009346                  _PressureGasToTempR410A
                  0x009830                  _TempToPressureGasR410A
                  0x009ca0                  _DinamicSuperHeatCold
                  0x009d5e                  _TempEvaporazione
                  0x009e76                  _PutStringToBUS2
                  0x00a04e                  _RegolaValvola
                  0x00b13e                  _RealFunctionMode
                  0x00b1d8                  _TempAmbMidSel
                  0x00b412                  _DefrostingCycle
                  0x00b57e                  _FloodFanCoilAlarmCycle
                  0x00b5f2                  _GasLeaksAlarmCycle
                  0x00b666                  _ValueIn2ValueOut
                  0x00b768                  _ValueToPercent
                  0x00b7a2                  _CheckErrorTemperatureProbe
                  0x00b970                  _CheckProbeFreeze
                  0x00b9de                  _Thermal_Power_Output_Calculation
 .text            0x00bdbc       0x2994 build/default/production/_ext/1472/ProtocolloComunicazione.o
                  0x00bdbc                  _SetMyAddress
                  0x00bdc8                  _GetMyAddress
                  0x00bdd0                  _ResetComFlags
                  0x00bde6                  _Process_Cmd
                  0x00bf46                  _GetData
                  0x00cf60                  _PutData
                  0x00e5ac                  _Change_ProtocolBusSlave
 .text            0x00e750       0x1ddc build/default/production/_ext/1472/EEPROM.o
                  0x00e750                  _StoreIntVirt
                  0x00e782                  _LoadIntVirt
                  0x00e7aa                  _Store_Offset_SectorPage
                  0x00e80e                  _HiByte
                  0x00e81c                  _LoByte
                  0x00e828                  _HiMidByte
                  0x00e836                  _LoMidByte
                  0x00e864                  _ToInt
                  0x00e87e                  _StoreInt
                  0x00e8ce                  _LoadInt
                  0x00e91a                  _ToLong
                  0x00e9ba                  _StoreLong
                  0x00ea54                  _LoadLong
                  0x00eadc                  _RefreshE2_TouchValue_DoubleSector
                  0x00eaf0                  _LoadE2_TouchValue_DoubleSector
                  0x00eafc                  _RefreshE2_TouchValue
                  0x00f334                  _LoadE2_TouchValue
                  0x00f8dc                  _Generate_CRC_E2
                  0x00f92e                  _CheckValueRange
                  0x00fd06                  _CheckVarValue
                  0x00fd42                  _CheckVarValueNew
                  0x00fda2                  _CheckVarValueNewNetB
                  0x00fe02                  _CheckVarValueSetPNetB
                  0x00fe6e                  _CheckVarValueNewSyxtS
                  0x00fece                  _CheckVarValueSetPSyxtS
                  0x00ff3a                  _CheckVarValueOnOffSyxtS
                  0x00ffa6                  _CheckDefModeValue
                  0x00ffdc                  _CheckUtaModeValue
                  0x010008                  _CheckPowerLimitValue
                  0x010036                  _CheckPumpSelectionValue
                  0x010052                  _CheckEEPROM_ReadWrite
                  0x010146                  _CheckEEPROM_Retention
                  0x010230                  _InitEEPROM_Retention
                  0x01026a                  _EraseEEPROM
                  0x01028a                  _LoadAllEEPROM_Debug
                  0x0102b8                  _CheckEEPROMCell
                  0x010382                  _CheckEEPROMCellSector
                  0x010500                  _LoadE2VirtualPageBuffer
 .text            0x01052c       0x18ce build/default/production/_ext/1472/ProtocolloComunicazioneSec.o
                  0x01052c                  _WaitRxSec
                  0x0105a4                  _Send_WriteReg_Sec
                  0x0106b2                  _SendBrc_WriteReg_Sec
                  0x01071a                  _FuncReadReg_Sec
                  0x01075a                  _FuncWriteReg_Sec
                  0x010792                  _FuncWriteBrcReg_Sec
                  0x0107ae                  _FuncCheckReg_Sec
                  0x0107da                  _CheckModuli_Sec
                  0x0108f0                  _CheckHotPlugSlave_Sec
                  0x010a56                  _ResumeOffLine_Sec
                  0x010bf0                  _RefreshInPutRoom_Sec
                  0x01120a                  _RefreshAllInPut_Sec
                  0x0114a8                  _RefreshOutPutRoom_Sec
                  0x011998                  _RefreshAllOutPut_Sec
                  0x0119be                  _MountImageSlaveFlags
 .text            0x011dfa       0x1742 build/default/production/_ext/1472/Main.o
                  0x011dfa                  _ErrorReport
                  0x011e80                  _AD2Kpid
                  0x011eb6                  _main
                  0x012270                  _Init
                  0x0128f4                  _Hw_Test
                  0x012ce0                  _Hw_Test_PLX_DAQ
                  0x012fc6                  _SendDataToTouch
                  0x0131ea                  _CheckIO
                  0x013260                  _ValveOpenCloseCheck
                  0x0132fa                  _CheckFanSpeed
                  0x0133ac                  _InitADConversion
                  0x0133f6                  _BootLoaderAutoReset
                  0x0134c4                  _GlobalIntReadBus
                  0x0134f0                  _OkDataProcess
 .text            0x01353c        0xf46 build/default/production/_ext/1472/ServiceComunication.o
                  0x01353c                  _Change_BaudeUART3
                  0x013590                  _PutStringToUART3
                  0x01378e                  _SendBufferToUART3
                  0x0137cc                  _PutDataForUART3
                  0x0139a6                  _PutDataForUART3_NEW
                  0x013ac2                  _PutDataForUART3_CheckBoard
                  0x0142be                  _PutDataForUART3_GetFileNumber
                  0x0142e2                  _PutDataForUART3_CheckBox
                  0x014322                  _IntReadServiceBusU3
                  0x014394                  _Process_ServiceU3Cmd
                  0x0143d0                  _StringToInt
 .text            0x014482        0xe5a build/default/production/_ext/1472/PWM.o
                  0x014482                  _Init_PWM_Value
                  0x014552                  _PWM2Freq
                  0x0145d8                  _DeltaTempInOut
                  0x014664                  _DeltaTempReqOut
                  0x0146f6                  _Init_PWM_Module
                  0x014734                  _VariazionePWM
                  0x014866                  _FanSpeedLimit
                  0x01491c                  _UpdateFanSpeed
                  0x014bfe                  _FineRegVentil
                  0x014d04                  _ControlloVentil
                  0x014d9e                  _Tacho_Init
                  0x014dc2                  _TachoInterrupt
                  0x014dde                  _RefreshTacho
                  0x014e20                  _Incrementa
                  0x014e8a                  _Decrementa
                  0x014ef4                  _TempAmbFanSel
                  0x014f00                  _DeltaSP2Vel
                  0x0150d2                  _DeltaSP2VelDiffPress
                  0x015124                  _FanPowerCalculation
                  0x015272                  _FanM3hCalculation
 .text            0x0152dc        0xd18 build/default/production/_ext/1472/ADC.o
                  0x0152dc                  _AD_Read_Sched
                  0x015804                  _AD_Read
                  0x0159a0                  _AD_ReadSingle
                  0x0159e0                  _Temp_Read
                  0x015b74                  _T_Amb_Read
                  0x015d0e                  _Pressure_Read_45
                  0x015d38                  _Pressure_Read_34
                  0x015d62                  _Steinhart
                  0x015f1a                  _PowerSupplyConversion
                  0x015f40                  _Pot_Read
                  0x015f92                  _DifferentialPressureConversion
                  0x015fb8                  _HumidityConversion
 .text            0x015ff4        0x61e build/default/production/_ext/1472/Driver_ModBusSec.o
                  0x015ff4                  _Mod_BaseCRC16Sec
                  0x016044                  _Mod_Generate_CRCSec
                  0x016082                  _Mod_CopyBufferSec
                  0x0160c0                  _Mod_WriteBusSec
                  0x016102                  _Mod_WriteBusU3
                  0x016144                  _Mod_IntReadBusSec
                  0x016334                  _Mod_IntTimeOutRxSec
                  0x016392                  _Mod_Recive_CmdSec
                  0x01643c                  _Mod_Write_CmdSec
 .text            0x016612        0x564 build/default/production/_ext/1472/Valvola_PassoPasso.o
                  0x016612                  _ResetStepDriver
                  0x01662c                  _Refresh_MotSt
                  0x016690                  _Free_Run
                  0x016698                  _Reduce_DriverCurrent
                  0x0166a0                  _Enable_Run
                  0x0166ac                  _Disable_Run
                  0x0166b4                  _ResetValvola
                  0x0166c6                  _OpenAllValvola
                  0x0166d4                  _ReSyncValvola
                  0x0166e6                  _DischOffsValvola
                  0x01671c                  _InitValveRangeValue
                  0x016766                  _CalculateValveRangeValue
                  0x016a7a                  _InitValvola
                  0x016ab6                  _RefreshValue
 .text            0x016b76        0x3d8 build/default/production/_ext/1472/Driver_ModBus.o
                  0x016b76                  _Mod_BaseCRC16
                  0x016bce                  _Mod_Generate_CRC
                  0x016bfe                  _Mod_CopyBuffer
                  0x016c30                  _Mod_WriteBus
                  0x016c6c                  _Mod_IntReadBus
                  0x016d7a                  _Mod_IntTimeOutRx
                  0x016dc0                  _Mod_Recive_Cmd
                  0x016e52                  _Mod_Reply_Cmd
 .text            0x016f4e        0x3ca build/default/production/_ext/1472/Driver_Comunicazione.o
                  0x016f4e                  _BaseCRC16
                  0x016fa0                  _GenerateCRC
                  0x01701a                  _CopyBuffer
                  0x01705c                  _WriteBus
                  0x0170de                  _IntReadBus
                  0x0171ea                  _IntTimeOutRx
                  0x017218                  _Recive_Cmd
                  0x01726a                  _Write_Cmd
                  0x0172c2                  _Write_brc_Cmd
 .text            0x017318        0x384 build/default/production/_ext/1472/Driver_ComunicazioneSec.o
                  0x017318                  _WriteBusSec
                  0x017360                  _WriteBusU3
                  0x0173a8                  _IntReadBusSec
                  0x017542                  _IntTimeOutRxSec
                  0x017576                  _Recive_Cmd_Sec
                  0x0175d8                  _Write_Cmd_Sec
 .text            0x01769c        0x37e build/default/production/_ext/1472/PID.o
                  0x01769c                  _PIDOut2Valve
                  0x0176ec                  _Valve2PIDOut
                  0x01773c                  _PID_SetOut
                  0x017764                  _PID_init
                  0x0177d6                  _UpdatePID
                  0x017978                  _Filter
 .text            0x017a1a        0x2ec build/default/production/_ext/1472/ProtocolloModBus.o
                  0x017a1a                  _WaitModRx
                  0x017aac                  _ExtracReg
                  0x017adc                  _InsertReg
                  0x017b08                  _Mod_Process_Cmd
                  0x017c04                  _Mod_GetDataMulti
 .text            0x017d06        0x2d2 build/default/production/_ext/1472/DefinePeriferiche.o
                  0x017d06                  _Remap_RP
 .text            0x017fd8        0x2c2 build/default/production/_ext/1472/I2C.o
                  0x017fd8                  _I2C_Init
                  0x017ff2                  _I2C_Is_Idle
                  0x01802e                  _I2C_Start
                  0x01806e                  _I2C_Repeated_Start
                  0x0180a4                  _I2C_Stop
                  0x0180d8                  _Reset_I2C_bus
                  0x018114                  _I2C_Write
                  0x018186                  _I2C_Read
                  0x0181c6                  _SetRegI2C
                  0x018254                  _ReadRegI2C
 .text            0x01829a        0x288 build/default/production/_ext/1472/i2c_LCD_Driver.o
                  0x01829a                  _I2C_LCD_Cmd
                  0x018312                  _I2C_LCD_Chr
                  0x0183c2                  _I2C_LCD_Chr_Cp
                  0x01842c                  _I2C_LCD_Init
                  0x0184d8                  _I2C_LCD_Out
                  0x018508                  _I2C_LCD_Out_Cp

.dinit            0x018522        0x272
 .dinit           0x018522        0x272 data_init

.text             0x018794        0x6ae
 .text            0x018794        0x208 build/default/production/_ext/1472/LCD_ScreenInfo.o
                  0x018794                  _LCD_Info_Init
                  0x0187be                  _Print_LCD_Info
 .text            0x01899c        0x170 build/default/production/_ext/1472/usart.o
                  0x01899c                  _putch1
                  0x0189ce                  _getch1
                  0x0189e6                  _putch2
                  0x018a18                  _getch2
                  0x018a30                  _putch3
                  0x018a62                  _getch3
                  0x018a7a                  _putch
                  0x018aa6                  _getch
                  0x018abe                  _getche
                  0x018ad6                  _ClearUart1Err
                  0x018ae8                  _ClearUart2Err
                  0x018afa                  _ClearUart3Err
 .text            0x018b0c        0x142 build/default/production/_ext/1472/Interrupt.o
                  0x018b0c                  _ErrorLedBlink
 .text            0x018c4e        0x102 build/default/production/_ext/1472/soft_i2c.o
                  0x018c4e                  _i2cInit
                  0x018c64                  _i2cReadByte
                  0x018ca0                  _i2cWriteByte
                  0x018cd0                  _i2cNack
                  0x018cda                  _i2cAck
                  0x018cec                  _i2cStart
                  0x018cfa                  _i2cStop
                  0x018d08                  _i2cHighSda
                  0x018d1a                  _i2cLowSda
                  0x018d2c                  _i2cHighScl
                  0x018d3e                  _i2cLowScl
 .text            0x018d50         0xf2 build/default/production/_ext/1472/Timer.o
                  0x018d50                  _Config_TMR1
                  0x018da8                  _Start_TMR1
                  0x018db0                  _Stop_TMR1
                  0x018dba                  _Pasue_TMR1
                  0x018dc2                  _ChkTimer
                  0x018df8                  _ChkTimerLong
                  0x018e34                  _Init_Timer

.init.delay32     0x018e42         0x1c
 .init.delay32    0x018e42         0x1c c:/program files (x86)/microchip/xc16/v1.41/bin/bin/../../lib\libpic30-elf.a(delay32da.eo)
                  0x018e42                  ___delay32
